ccopy_reg
_reconstructor
p1
(cmatplotlib.font_manager
FontManager
p2
c__builtin__
object
p3
NtRp4
(dp5
S'ttflist'
p6
(lp7
g1
(cmatplotlib.font_manager
FontEntry
p8
g3
NtRp9
(dp10
S'style'
p11
Voblique
p12
sS'name'
p13
VBitstream Vera Sans
p14
sS'weight'
p15
I400
sS'stretch'
p16
Vnormal
p17
sS'variant'
p18
g17
sS'fname'
p19
V/Users/zhaoyu/soft/anaconda2/envs/uvcdat_nightly/lib/python2.7/site-packages/matplotlib/mpl-data/fonts/ttf/VeraIt.ttf
p20
sS'size'
p21
Vscalable
p22
sbag1
(g8
g3
NtRp23
(dp24
g11
Vitalic
p25
sg13
VSTIXGeneral
p26
sg15
I700
sg16
g17
sg18
g17
sg19
V/Users/zhaoyu/soft/anaconda2/envs/uvcdat_nightly/lib/python2.7/site-packages/matplotlib/mpl-data/fonts/ttf/STIXGeneralBolIta.ttf
p27
sg21
g22
sbag1
(g8
g3
NtRp28
(dp29
g11
g17
sg13
Vcmss10
p30
sg15
I400
sg16
g17
sg18
g17
sg19
V/Users/zhaoyu/soft/anaconda2/envs/uvcdat_nightly/lib/python2.7/site-packages/matplotlib/mpl-data/fonts/ttf/cmss10.ttf
p31
sg21
g22
sbag1
(g8
g3
NtRp32
(dp33
g11
g17
sg13
Vcmex10
p34
sg15
I400
sg16
g17
sg18
g17
sg19
V/Users/zhaoyu/soft/anaconda2/envs/uvcdat_nightly/lib/python2.7/site-packages/matplotlib/mpl-data/fonts/ttf/cmex10.ttf
p35
sg21
g22
sbag1
(g8
g3
NtRp36
(dp37
g11
g17
sg13
VSTIXSizeOneSym
p38
sg15
I700
sg16
g17
sg18
g17
sg19
V/Users/zhaoyu/soft/anaconda2/envs/uvcdat_nightly/lib/python2.7/site-packages/matplotlib/mpl-data/fonts/ttf/STIXSizOneSymBol.ttf
p39
sg21
g22
sbag1
(g8
g3
NtRp40
(dp41
g11
g17
sg13
Vcmb10
p42
sg15
I400
sg16
g17
sg18
g17
sg19
V/Users/zhaoyu/soft/anaconda2/envs/uvcdat_nightly/lib/python2.7/site-packages/matplotlib/mpl-data/fonts/ttf/cmb10.ttf
p43
sg21
g22
sbag1
(g8
g3
NtRp44
(dp45
g11
g17
sg13
VBitstream Vera Sans
p46
sg15
I700
sg16
g17
sg18
g17
sg19
V/Users/zhaoyu/soft/anaconda2/envs/uvcdat_nightly/lib/python2.7/site-packages/matplotlib/mpl-data/fonts/ttf/VeraBd.ttf
p47
sg21
g22
sbag1
(g8
g3
NtRp48
(dp49
g11
g17
sg13
VBitstream Vera Serif
p50
sg15
I700
sg16
g17
sg18
g17
sg19
V/Users/zhaoyu/soft/anaconda2/envs/uvcdat_nightly/lib/python2.7/site-packages/matplotlib/mpl-data/fonts/ttf/VeraSeBd.ttf
p51
sg21
g22
sbag1
(g8
g3
NtRp52
(dp53
g11
g17
sg13
VSTIXSizeFourSym
p54
sg15
I400
sg16
g17
sg18
g17
sg19
V/Users/zhaoyu/soft/anaconda2/envs/uvcdat_nightly/lib/python2.7/site-packages/matplotlib/mpl-data/fonts/ttf/STIXSizFourSymReg.ttf
p55
sg21
g22
sbag1
(g8
g3
NtRp56
(dp57
g11
g17
sg13
VSTIXSizeTwoSym
p58
sg15
I400
sg16
g17
sg18
g17
sg19
V/Users/zhaoyu/soft/anaconda2/envs/uvcdat_nightly/lib/python2.7/site-packages/matplotlib/mpl-data/fonts/ttf/STIXSizTwoSymReg.ttf
p59
sg21
g22
sbag1
(g8
g3
NtRp60
(dp61
g11
g25
sg13
VSTIXNonUnicode
p62
sg15
I700
sg16
g17
sg18
g17
sg19
V/Users/zhaoyu/soft/anaconda2/envs/uvcdat_nightly/lib/python2.7/site-packages/matplotlib/mpl-data/fonts/ttf/STIXNonUniBolIta.ttf
p63
sg21
g22
sbag1
(g8
g3
NtRp64
(dp65
g11
g12
sg13
VBitstream Vera Sans Mono
p66
sg15
I700
sg16
g17
sg18
g17
sg19
V/Users/zhaoyu/soft/anaconda2/envs/uvcdat_nightly/lib/python2.7/site-packages/matplotlib/mpl-data/fonts/ttf/VeraMoBI.ttf
p67
sg21
g22
sbag1
(g8
g3
NtRp68
(dp69
g11
g17
sg13
VSTIXSizeTwoSym
p70
sg15
I700
sg16
g17
sg18
g17
sg19
V/Users/zhaoyu/soft/anaconda2/envs/uvcdat_nightly/lib/python2.7/site-packages/matplotlib/mpl-data/fonts/ttf/STIXSizTwoSymBol.ttf
p71
sg21
g22
sbag1
(g8
g3
NtRp72
(dp73
g11
g17
sg13
VSTIXSizeThreeSym
p74
sg15
I400
sg16
g17
sg18
g17
sg19
V/Users/zhaoyu/soft/anaconda2/envs/uvcdat_nightly/lib/python2.7/site-packages/matplotlib/mpl-data/fonts/ttf/STIXSizThreeSymReg.ttf
p75
sg21
g22
sbag1
(g8
g3
NtRp76
(dp77
g11
g12
sg13
VBitstream Vera Sans
p78
sg15
I700
sg16
g17
sg18
g17
sg19
V/Users/zhaoyu/soft/anaconda2/envs/uvcdat_nightly/lib/python2.7/site-packages/matplotlib/mpl-data/fonts/ttf/VeraBI.ttf
p79
sg21
g22
sbag1
(g8
g3
NtRp80
(dp81
g11
g17
sg13
VSTIXGeneral
p82
sg15
I700
sg16
g17
sg18
g17
sg19
V/Users/zhaoyu/soft/anaconda2/envs/uvcdat_nightly/lib/python2.7/site-packages/matplotlib/mpl-data/fonts/ttf/STIXGeneralBol.ttf
p83
sg21
g22
sbag1
(g8
g3
NtRp84
(dp85
g11
g17
sg13
VSTIXSizeFiveSym
p86
sg15
I400
sg16
g17
sg18
g17
sg19
V/Users/zhaoyu/soft/anaconda2/envs/uvcdat_nightly/lib/python2.7/site-packages/matplotlib/mpl-data/fonts/ttf/STIXSizFiveSymReg.ttf
p87
sg21
g22
sbag1
(g8
g3
NtRp88
(dp89
g11
g17
sg13
Vcmtt10
p90
sg15
I400
sg16
g17
sg18
g17
sg19
V/Users/zhaoyu/soft/anaconda2/envs/uvcdat_nightly/lib/python2.7/site-packages/matplotlib/mpl-data/fonts/ttf/cmtt10.ttf
p91
sg21
g22
sbag1
(g8
g3
NtRp92
(dp93
g11
g17
sg13
Vcmr10
p94
sg15
I400
sg16
g17
sg18
g17
sg19
V/Users/zhaoyu/soft/anaconda2/envs/uvcdat_nightly/lib/python2.7/site-packages/matplotlib/mpl-data/fonts/ttf/cmr10.ttf
p95
sg21
g22
sbag1
(g8
g3
NtRp96
(dp97
g11
g17
sg13
VSTIXNonUnicode
p98
sg15
I400
sg16
g17
sg18
g17
sg19
V/Users/zhaoyu/soft/anaconda2/envs/uvcdat_nightly/lib/python2.7/site-packages/matplotlib/mpl-data/fonts/ttf/STIXNonUni.ttf
p99
sg21
g22
sbag1
(g8
g3
NtRp100
(dp101
g11
g17
sg13
Vcmmi10
p102
sg15
I400
sg16
g17
sg18
g17
sg19
V/Users/zhaoyu/soft/anaconda2/envs/uvcdat_nightly/lib/python2.7/site-packages/matplotlib/mpl-data/fonts/ttf/cmmi10.ttf
p103
sg21
g22
sbag1
(g8
g3
NtRp104
(dp105
g11
g25
sg13
VSTIXNonUnicode
p106
sg15
I400
sg16
g17
sg18
g17
sg19
V/Users/zhaoyu/soft/anaconda2/envs/uvcdat_nightly/lib/python2.7/site-packages/matplotlib/mpl-data/fonts/ttf/STIXNonUniIta.ttf
p107
sg21
g22
sbag1
(g8
g3
NtRp108
(dp109
g11
g17
sg13
VBitstream Vera Sans Mono
p110
sg15
I700
sg16
g17
sg18
g17
sg19
V/Users/zhaoyu/soft/anaconda2/envs/uvcdat_nightly/lib/python2.7/site-packages/matplotlib/mpl-data/fonts/ttf/VeraMoBd.ttf
p111
sg21
g22
sbag1
(g8
g3
NtRp112
(dp113
g11
g25
sg13
VSTIXGeneral
p114
sg15
I400
sg16
g17
sg18
g17
sg19
V/Users/zhaoyu/soft/anaconda2/envs/uvcdat_nightly/lib/python2.7/site-packages/matplotlib/mpl-data/fonts/ttf/STIXGeneralItalic.ttf
p115
sg21
g22
sbag1
(g8
g3
NtRp116
(dp117
g11
g12
sg13
VBitstream Vera Sans Mono
p118
sg15
I400
sg16
g17
sg18
g17
sg19
V/Users/zhaoyu/soft/anaconda2/envs/uvcdat_nightly/lib/python2.7/site-packages/matplotlib/mpl-data/fonts/ttf/VeraMoIt.ttf
p119
sg21
g22
sbag1
(g8
g3
NtRp120
(dp121
g11
g17
sg13
VSTIXSizeOneSym
p122
sg15
I400
sg16
g17
sg18
g17
sg19
V/Users/zhaoyu/soft/anaconda2/envs/uvcdat_nightly/lib/python2.7/site-packages/matplotlib/mpl-data/fonts/ttf/STIXSizOneSymReg.ttf
p123
sg21
g22
sbag1
(g8
g3
NtRp124
(dp125
g11
g17
sg13
VBitstream Vera Serif
p126
sg15
I400
sg16
g17
sg18
g17
sg19
V/Users/zhaoyu/soft/anaconda2/envs/uvcdat_nightly/lib/python2.7/site-packages/matplotlib/mpl-data/fonts/ttf/VeraSe.ttf
p127
sg21
g22
sbag1
(g8
g3
NtRp128
(dp129
g11
g17
sg13
VBitstream Vera Sans
p130
sg15
I400
sg16
g17
sg18
g17
sg19
V/Users/zhaoyu/soft/anaconda2/envs/uvcdat_nightly/lib/python2.7/site-packages/matplotlib/mpl-data/fonts/ttf/Vera.ttf
p131
sg21
g22
sbag1
(g8
g3
NtRp132
(dp133
g11
g17
sg13
Vcmsy10
p134
sg15
I400
sg16
g17
sg18
g17
sg19
V/Users/zhaoyu/soft/anaconda2/envs/uvcdat_nightly/lib/python2.7/site-packages/matplotlib/mpl-data/fonts/ttf/cmsy10.ttf
p135
sg21
g22
sbag1
(g8
g3
NtRp136
(dp137
g11
g17
sg13
VSTIXGeneral
p138
sg15
I400
sg16
g17
sg18
g17
sg19
V/Users/zhaoyu/soft/anaconda2/envs/uvcdat_nightly/lib/python2.7/site-packages/matplotlib/mpl-data/fonts/ttf/STIXGeneral.ttf
p139
sg21
g22
sbag1
(g8
g3
NtRp140
(dp141
g11
g17
sg13
VBitstream Vera Sans Mono
p142
sg15
I400
sg16
g17
sg18
g17
sg19
V/Users/zhaoyu/soft/anaconda2/envs/uvcdat_nightly/lib/python2.7/site-packages/matplotlib/mpl-data/fonts/ttf/VeraMono.ttf
p143
sg21
g22
sbag1
(g8
g3
NtRp144
(dp145
g11
g17
sg13
VSTIXSizeThreeSym
p146
sg15
I700
sg16
g17
sg18
g17
sg19
V/Users/zhaoyu/soft/anaconda2/envs/uvcdat_nightly/lib/python2.7/site-packages/matplotlib/mpl-data/fonts/ttf/STIXSizThreeSymBol.ttf
p147
sg21
g22
sbag1
(g8
g3
NtRp148
(dp149
g11
g17
sg13
VSTIXNonUnicode
p150
sg15
I700
sg16
g17
sg18
g17
sg19
V/Users/zhaoyu/soft/anaconda2/envs/uvcdat_nightly/lib/python2.7/site-packages/matplotlib/mpl-data/fonts/ttf/STIXNonUniBol.ttf
p151
sg21
g22
sbag1
(g8
g3
NtRp152
(dp153
g11
g17
sg13
VSTIXSizeFourSym
p154
sg15
I700
sg16
g17
sg18
g17
sg19
V/Users/zhaoyu/soft/anaconda2/envs/uvcdat_nightly/lib/python2.7/site-packages/matplotlib/mpl-data/fonts/ttf/STIXSizFourSymBol.ttf
p155
sg21
g22
sbag1
(g8
g3
NtRp156
(dp157
g11
g25
sg13
VTrebuchet MS
p158
sg15
I400
sg16
g17
sg18
g17
sg19
V/Library/Fonts/Trebuchet MS Italic.ttf
p159
sg21
g22
sbag1
(g8
g3
NtRp160
(dp161
g11
g17
sg13
VHoefler Text
p162
sg15
I400
sg16
g17
sg18
g17
sg19
V/Library/Fonts/Hoefler Text Ornaments.ttf
p163
sg21
g22
sbag1
(g8
g3
NtRp164
(dp165
g11
g17
sg13
VSystem Font
p166
sg15
I400
sg16
g17
sg18
g17
sg19
V/System/Library/Fonts/SFNSText-HeavyItalic.otf
p167
sg21
g22
sbag1
(g8
g3
NtRp168
(dp169
g11
g17
sg13
VTimes New Roman
p170
sg15
I500
sg16
g17
sg18
g17
sg19
V/Library/Fonts/Times New Roman.ttf
p171
sg21
g22
sbag1
(g8
g3
NtRp172
(dp173
g11
g12
sg13
VLuxi Sans
p174
sg15
I400
sg16
g17
sg18
g17
sg19
V/usr/X11/lib/X11/fonts/TTF/luxisri.ttf
p175
sg21
g22
sbag1
(g8
g3
NtRp176
(dp177
g11
g17
sg13
VOsaka
p178
sg15
I400
sg16
g17
sg18
g17
sg19
V/Library/Fonts/Osaka.ttf
p179
sg21
g22
sbag1
(g8
g3
NtRp180
(dp181
g11
g12
sg13
VLuxi Mono
p182
sg15
I400
sg16
g17
sg18
g17
sg19
V/usr/X11/lib/X11/fonts/TTF/luximri.ttf
p183
sg21
g22
sbag1
(g8
g3
NtRp184
(dp185
g11
g17
sg13
VSource Code Pro
p186
sg15
I700
sg16
g17
sg18
g17
sg19
V/Users/zhaoyu/Library/Fonts/SourceCodePro-Bold.ttf
p187
sg21
g22
sbag1
(g8
g3
NtRp188
(dp189
g11
g17
sg13
VFira Mono for Powerline
p190
sg15
I400
sg16
g17
sg18
g17
sg19
V/Users/zhaoyu/Library/Fonts/FuraMono-Regular Powerline.otf
p191
sg21
g22
sbag1
(g8
g3
NtRp192
(dp193
g11
g17
sg13
VVerdana
p194
sg15
I700
sg16
g17
sg18
g17
sg19
V/Library/Fonts/Verdana Bold.ttf
p195
sg21
g22
sbag1
(g8
g3
NtRp196
(dp197
g11
g17
sg13
VSystem Font
p198
sg15
I400
sg16
g17
sg18
g17
sg19
V/System/Library/Fonts/SFNSDisplay-Bold.otf
p199
sg21
g22
sbag1
(g8
g3
NtRp200
(dp201
g11
g17
sg13
VArial Unicode MS
p202
sg15
I400
sg16
g17
sg18
g17
sg19
V/Library/Fonts/Arial Unicode.ttf
p203
sg21
g22
sbag1
(g8
g3
NtRp204
(dp205
g11
g17
sg13
VSTIXSizeThreeSym
p206
sg15
I400
sg16
g17
sg18
g17
sg19
V/Library/Fonts/STIXSizThreeSymReg.otf
p207
sg21
g22
sbag1
(g8
g3
NtRp208
(dp209
g11
g17
sg13
VTinos for Powerline
p210
sg15
I700
sg16
g17
sg18
g17
sg19
V/Users/zhaoyu/Library/Fonts/Tinos Bold for Powerline.ttf
p211
sg21
g22
sbag1
(g8
g3
NtRp212
(dp213
g11
g17
sg13
VDIN Condensed
p214
sg15
I700
sg16
Vcondensed
p215
sg18
g17
sg19
V/Library/Fonts/DIN Condensed Bold.ttf
p216
sg21
g22
sbag1
(g8
g3
NtRp217
(dp218
g11
g12
sg13
VDejaVu Sans Mono for Powerline
p219
sg15
I700
sg16
g17
sg18
g17
sg19
V/Users/zhaoyu/Library/Fonts/DejaVu Sans Mono Bold Oblique for Powerline.ttf
p220
sg21
g22
sbag1
(g8
g3
NtRp221
(dp222
g11
g25
sg13
VLiberation Mono for Powerline
p223
sg15
I700
sg16
g17
sg18
g17
sg19
V/Users/zhaoyu/Library/Fonts/Literation Mono Powerline Bold Italic.ttf
p224
sg21
g22
sbag1
(g8
g3
NtRp225
(dp226
g11
g17
sg13
VSource Code Pro for Powerline
p227
sg15
I400
sg16
g17
sg18
g17
sg19
V/Users/zhaoyu/Library/Fonts/Sauce Code Powerline Regular.otf
p228
sg21
g22
sbag1
(g8
g3
NtRp229
(dp230
g11
g12
sg13
VDejaVu Sans Mono for Powerline
p231
sg15
I400
sg16
g17
sg18
g17
sg19
V/Users/zhaoyu/Library/Fonts/DejaVu Sans Mono Oblique for Powerline.ttf
p232
sg21
g22
sbag1
(g8
g3
NtRp233
(dp234
g11
g12
sg13
VLuxi Serif
p235
sg15
I400
sg16
g17
sg18
g17
sg19
V/usr/X11R6/lib/X11/fonts/TTF/luxirri.ttf
p236
sg21
g22
sbag1
(g8
g3
NtRp237
(dp238
g11
g17
sg13
VEstrangelo Nisibin
p239
sg15
I400
sg16
g17
sg18
g17
sg19
V/usr/X11/lib/X11/fonts/OTF/SyrCOMNisibin.otf
p240
sg21
g22
sbag1
(g8
g3
NtRp241
(dp242
g11
g17
sg13
VLiSong Pro
p243
sg15
I400
sg16
g17
sg18
g17
sg19
V/Library/Fonts/\u5137\u5b8b Pro.ttf
p244
sg21
g22
sbag1
(g8
g3
NtRp245
(dp246
g11
g17
sg13
VArial
p247
sg15
I400
sg16
g17
sg18
g17
sg19
V/Library/Fonts/Arial.ttf
p248
sg21
g22
sbag1
(g8
g3
NtRp249
(dp250
g11
g17
sg13
VSource Code Pro for Powerline
p251
sg15
I900
sg16
g17
sg18
g17
sg19
V/Users/zhaoyu/Library/Fonts/Sauce Code Powerline Black.otf
p252
sg21
g22
sbag1
(g8
g3
NtRp253
(dp254
g11
g17
sg13
VRoboto Mono Light for Powerline
p255
sg15
I200
sg16
g17
sg18
g17
sg19
V/Users/zhaoyu/Library/Fonts/Roboto Mono Light for Powerline.ttf
p256
sg21
g22
sbag1
(g8
g3
NtRp257
(dp258
g11
g17
sg13
VAppleGothic
p259
sg15
I400
sg16
g17
sg18
g17
sg19
V/Library/Fonts/AppleGothic.ttf
p260
sg21
g22
sbag1
(g8
g3
NtRp261
(dp262
g11
g17
sg13
VYuGothic
p263
sg15
I500
sg16
g17
sg18
g17
sg19
V/Library/Fonts/Yu Gothic Medium.otf
p264
sg21
g22
sbag1
(g8
g3
NtRp265
(dp266
g11
g17
sg13
VArial Narrow
p267
sg15
I400
sg16
g215
sg18
g17
sg19
V/Library/Fonts/Arial Narrow.ttf
p268
sg21
g22
sbag1
(g8
g3
NtRp269
(dp270
g11
g17
sg13
VLuxi Mono
p271
sg15
I700
sg16
g17
sg18
g17
sg19
V/usr/X11/lib/X11/fonts/TTF/luximb.ttf
p272
sg21
g22
sbag1
(g8
g3
NtRp273
(dp274
g11
g17
sg13
VFira Mono Medium for Powerline
p275
sg15
I500
sg16
g17
sg18
g17
sg19
V/Users/zhaoyu/Library/Fonts/FuraMono-Medium Powerline.otf
p276
sg21
g22
sbag1
(g8
g3
NtRp277
(dp278
g11
g17
sg13
VSystem Font
p279
sg15
I400
sg16
g17
sg18
g17
sg19
V/System/Library/Fonts/SFNSDisplay-Medium.otf
p280
sg21
g22
sbag1
(g8
g3
NtRp281
(dp282
g11
g17
sg13
VSerto Batnan
p283
sg15
I700
sg16
g17
sg18
g17
sg19
V/usr/X11/lib/X11/fonts/OTF/SyrCOMBatnanBold.otf
p284
sg21
g22
sbag1
(g8
g3
NtRp285
(dp286
g11
g17
sg13
VAppleMyungjo
p287
sg15
I400
sg16
g17
sg18
g17
sg19
V/Library/Fonts/AppleMyungjo.ttf
p288
sg21
g22
sbag1
(g8
g3
NtRp289
(dp290
g11
g25
sg13
VAnonymous Pro for Powerline
p291
sg15
I400
sg16
g17
sg18
g17
sg19
V/Users/zhaoyu/Library/Fonts/Anonymice Powerline Italic.ttf
p292
sg21
g22
sbag1
(g8
g3
NtRp293
(dp294
g11
g17
sg13
VSerto Mardin
p295
sg15
I700
sg16
g17
sg18
g17
sg19
V/usr/X11/lib/X11/fonts/OTF/SyrCOMMardinBold.otf
p296
sg21
g22
sbag1
(g8
g3
NtRp297
(dp298
g11
g17
sg13
VMishafi Gold
p299
sg15
I400
sg16
g17
sg18
g17
sg19
V/Library/Fonts/Mishafi Gold.ttf
p300
sg21
g22
sbag1
(g8
g3
NtRp301
(dp302
g11
g17
sg13
VSerto Jerusalem Outline
p303
sg15
I400
sg16
g17
sg18
g17
sg19
V/usr/X11/lib/X11/fonts/OTF/SyrCOMJerusalemOutline.otf
p304
sg21
g22
sbag1
(g8
g3
NtRp305
(dp306
g11
g17
sg13
VZapf Dingbats
p307
sg15
I400
sg16
g17
sg18
g17
sg19
V/System/Library/Fonts/ZapfDingbats.ttf
p308
sg21
g22
sbag1
(g8
g3
NtRp309
(dp310
g11
g17
sg13
VMeslo LG M DZ for Powerline
p311
sg15
I400
sg16
g17
sg18
g17
sg19
V/Users/zhaoyu/Library/Fonts/Meslo LG M DZ Regular for Powerline.otf
p312
sg21
g22
sbag1
(g8
g3
NtRp313
(dp314
g11
g17
sg13
VArimo for Powerline
p315
sg15
I400
sg16
g17
sg18
g17
sg19
V/Users/zhaoyu/Library/Fonts/Arimo for Powerline.ttf
p316
sg21
g22
sbag1
(g8
g3
NtRp317
(dp318
g11
g17
sg13
VSTIXIntegralsD
p319
sg15
I700
sg16
g17
sg18
g17
sg19
V/Library/Fonts/STIXIntDBol.otf
p320
sg21
g22
sbag1
(g8
g3
NtRp321
(dp322
g11
g17
sg13
VHack
p323
sg15
I400
sg16
g17
sg18
g17
sg19
V/Users/zhaoyu/Library/Fonts/Hack-Regular.ttf
p324
sg21
g22
sbag1
(g8
g3
NtRp325
(dp326
g11
g17
sg13
VRoboto Mono Medium for Powerline
p327
sg15
I500
sg16
g17
sg18
g17
sg19
V/Users/zhaoyu/Library/Fonts/Roboto Mono Medium for Powerline.ttf
p328
sg21
g22
sbag1
(g8
g3
NtRp329
(dp330
g11
g17
sg13
VSystem Font
p331
sg15
I400
sg16
g17
sg18
g17
sg19
V/System/Library/Fonts/SFNSText-BoldItalicG2.otf
p332
sg21
g22
sbag1
(g8
g3
NtRp333
(dp334
g11
g17
sg13
VDIN Alternate
p335
sg15
I700
sg16
g17
sg18
g17
sg19
V/Library/Fonts/DIN Alternate Bold.ttf
p336
sg21
g22
sbag1
(g8
g3
NtRp337
(dp338
g11
g17
sg13
VDroid Sans Mono Slashed for Powerline
p339
sg15
I400
sg16
g17
sg18
g17
sg19
V/Users/zhaoyu/Library/Fonts/Droid Sans Mono Slashed for Powerline.ttf
p340
sg21
g22
sbag1
(g8
g3
NtRp341
(dp342
g11
g17
sg13
VSTIXSizeThreeSym
p343
sg15
I700
sg16
g17
sg18
g17
sg19
V/Library/Fonts/STIXSizThreeSymBol.otf
p344
sg21
g22
sbag1
(g8
g3
NtRp345
(dp346
g11
g17
sg13
VRoboto Mono Thin for Powerline
p347
sg15
I400
sg16
g17
sg18
g17
sg19
V/Users/zhaoyu/Library/Fonts/Roboto Mono Thin for Powerline.ttf
p348
sg21
g22
sbag1
(g8
g3
NtRp349
(dp350
g11
g12
sg13
VLuxi Serif
p351
sg15
I700
sg16
g17
sg18
g17
sg19
V/usr/X11R6/lib/X11/fonts/TTF/luxirbi.ttf
p352
sg21
g22
sbag1
(g8
g3
NtRp353
(dp354
g11
g17
sg13
VCourier New
p355
sg15
I400
sg16
g17
sg18
g17
sg19
V/Library/Fonts/Courier New.ttf
p356
sg21
g22
sbag1
(g8
g3
NtRp357
(dp358
g11
g25
sg13
VArial Narrow
p359
sg15
I700
sg16
g215
sg18
g17
sg19
V/Library/Fonts/Arial Narrow Bold Italic.ttf
p360
sg21
g22
sbag1
(g8
g3
NtRp361
(dp362
g11
g17
sg13
VRoboto Mono for Powerline
p363
sg15
I700
sg16
g17
sg18
g17
sg19
V/Users/zhaoyu/Library/Fonts/Roboto Mono Bold for Powerline.ttf
p364
sg21
g22
sbag1
(g8
g3
NtRp365
(dp366
g11
g17
sg13
VLuminari
p367
sg15
I400
sg16
g17
sg18
g17
sg19
V/Library/Fonts/Luminari.ttf
p368
sg21
g22
sbag1
(g8
g3
NtRp369
(dp370
g11
g17
sg13
VZapfino
p371
sg15
I400
sg16
g17
sg18
g17
sg19
V/Library/Fonts/Zapfino.ttf
p372
sg21
g22
sbag1
(g8
g3
NtRp373
(dp374
g11
g17
sg13
VArial Narrow
p375
sg15
I700
sg16
g215
sg18
g17
sg19
V/Library/Fonts/Arial Narrow Bold.ttf
p376
sg21
g22
sbag1
(g8
g3
NtRp377
(dp378
g11
g25
sg13
VTimes New Roman
p379
sg15
I500
sg16
g17
sg18
g17
sg19
V/Library/Fonts/Times New Roman Italic.ttf
p380
sg21
g22
sbag1
(g8
g3
NtRp381
(dp382
g11
g17
sg13
VKrungthep
p383
sg15
I400
sg16
g17
sg18
g17
sg19
V/Library/Fonts/Krungthep.ttf
p384
sg21
g22
sbag1
(g8
g3
NtRp385
(dp386
g11
g17
sg13
VSystem Font
p387
sg15
I400
sg16
g17
sg18
g17
sg19
V/System/Library/Fonts/SFNSText-RegularItalic.otf
p388
sg21
g22
sbag1
(g8
g3
NtRp389
(dp390
g11
g25
sg13
VArimo for Powerline
p391
sg15
I400
sg16
g17
sg18
g17
sg19
V/Users/zhaoyu/Library/Fonts/Arimo Italic for Powerline.ttf
p392
sg21
g22
sbag1
(g8
g3
NtRp393
(dp394
g11
g17
sg13
VCousine for Powerline
p395
sg15
I400
sg16
g17
sg18
g17
sg19
V/Users/zhaoyu/Library/Fonts/Cousine for Powerline.ttf
p396
sg21
g22
sbag1
(g8
g3
NtRp397
(dp398
g11
g17
sg13
VSystem Font
p399
sg15
I400
sg16
g17
sg18
g17
sg19
V/System/Library/Fonts/SFNSText-RegularG2.otf
p400
sg21
g22
sbag1
(g8
g3
NtRp401
(dp402
g11
g25
sg13
VTinos for Powerline
p403
sg15
I700
sg16
g17
sg18
g17
sg19
V/Users/zhaoyu/Library/Fonts/Tinos Bold Italic for Powerline.ttf
p404
sg21
g22
sbag1
(g8
g3
NtRp405
(dp406
g11
g17
sg13
VGeorgia
p407
sg15
I400
sg16
g17
sg18
g17
sg19
V/Library/Fonts/Georgia.ttf
p408
sg21
g22
sbag1
(g8
g3
NtRp409
(dp410
g11
g17
sg13
VSystem Font
p411
sg15
I400
sg16
g17
sg18
g17
sg19
V/System/Library/Fonts/SFNSText-Medium.otf
p412
sg21
g22
sbag1
(g8
g3
NtRp413
(dp414
g11
g17
sg13
VSTIXIntegralsSm
p415
sg15
I700
sg16
g17
sg18
g17
sg19
V/Library/Fonts/STIXIntSmBol.otf
p416
sg21
g22
sbag1
(g8
g3
NtRp417
(dp418
g11
g17
sg13
VDiwan Thuluth
p419
sg15
I400
sg16
g17
sg18
g17
sg19
V/Library/Fonts/Diwan Thuluth.ttf
p420
sg21
g22
sbag1
(g8
g3
NtRp421
(dp422
g11
g17
sg13
VTrebuchet MS
p423
sg15
I700
sg16
g17
sg18
g17
sg19
V/Library/Fonts/Trebuchet MS Bold.ttf
p424
sg21
g22
sbag1
(g8
g3
NtRp425
(dp426
g11
g17
sg13
VHack
p427
sg15
I700
sg16
g17
sg18
g17
sg19
V/Users/zhaoyu/Library/Fonts/Hack-Bold.ttf
p428
sg21
g22
sbag1
(g8
g3
NtRp429
(dp430
g11
g17
sg13
VInconsolata for Powerline
p431
sg15
I400
sg16
g17
sg18
g17
sg19
V/Users/zhaoyu/Library/Fonts/Inconsolata for Powerline.otf
p432
sg21
g22
sbag1
(g8
g3
NtRp433
(dp434
g11
g17
sg13
VSource Code Pro
p435
sg15
I500
sg16
g17
sg18
g17
sg19
V/Users/zhaoyu/Library/Fonts/SourceCodePro-Medium.ttf
p436
sg21
g22
sbag1
(g8
g3
NtRp437
(dp438
g11
g17
sg13
VSerto Mardin
p439
sg15
I400
sg16
g17
sg18
g17
sg19
V/usr/X11/lib/X11/fonts/OTF/SyrCOMMardin.otf
p440
sg21
g22
sbag1
(g8
g3
NtRp441
(dp442
g11
g17
sg13
VSystem Font
p443
sg15
I400
sg16
g17
sg18
g17
sg19
V/System/Library/Fonts/SFNSText-BoldG1.otf
p444
sg21
g22
sbag1
(g8
g3
NtRp445
(dp446
g11
g17
sg13
VSymbol Neu for Powerline
p447
sg15
I400
sg16
g17
sg18
g17
sg19
V/Users/zhaoyu/Library/Fonts/Symbol Neu for Powerline.ttf
p448
sg21
g22
sbag1
(g8
g3
NtRp449
(dp450
g11
g17
sg13
VDejaVu Sans Mono for Powerline
p451
sg15
I700
sg16
g17
sg18
g17
sg19
V/Users/zhaoyu/Library/Fonts/DejaVu Sans Mono Bold for Powerline.ttf
p452
sg21
g22
sbag1
(g8
g3
NtRp453
(dp454
g11
g17
sg13
VBradley Hand
p455
sg15
I700
sg16
g17
sg18
g17
sg19
V/Library/Fonts/Bradley Hand Bold.ttf
p456
sg21
g22
sbag1
(g8
g3
NtRp457
(dp458
g11
g17
sg13
VSystem Font
p459
sg15
I400
sg16
g17
sg18
g17
sg19
V/System/Library/Fonts/SFNSText-SemiboldItalic.otf
p460
sg21
g22
sbag1
(g8
g3
NtRp461
(dp462
g11
g17
sg13
VMeslo LG S DZ for Powerline
p463
sg15
I400
sg16
g17
sg18
g17
sg19
V/Users/zhaoyu/Library/Fonts/Meslo LG S DZ Regular for Powerline.otf
p464
sg21
g22
sbag1
(g8
g3
NtRp465
(dp466
g11
g17
sg13
VInconsolata-g for Powerline
p467
sg15
I400
sg16
g17
sg18
g17
sg19
V/Users/zhaoyu/Library/Fonts/Inconsolata-g for Powerline.otf
p468
sg21
g22
sbag1
(g8
g3
NtRp469
(dp470
g11
g25
sg13
VTimes New Roman
p471
sg15
I700
sg16
g17
sg18
g17
sg19
V/Library/Fonts/Times New Roman Bold Italic.ttf
p472
sg21
g22
sbag1
(g8
g3
NtRp473
(dp474
g11
g25
sg13
VArial Narrow
p475
sg15
I400
sg16
g215
sg18
g17
sg19
V/Library/Fonts/Arial Narrow Italic.ttf
p476
sg21
g22
sbag1
(g8
g3
NtRp477
(dp478
g11
g25
sg13
VArimo for Powerline
p479
sg15
I700
sg16
g17
sg18
g17
sg19
V/Users/zhaoyu/Library/Fonts/Arimo Bold Italic for Powerline.ttf
p480
sg21
g22
sbag1
(g8
g3
NtRp481
(dp482
g11
g17
sg13
VArimo for Powerline
p483
sg15
I700
sg16
g17
sg18
g17
sg19
V/Users/zhaoyu/Library/Fonts/Arimo Bold for Powerline.ttf
p484
sg21
g22
sbag1
(g8
g3
NtRp485
(dp486
g11
g17
sg13
VLuxi Mono
p487
sg15
I400
sg16
g17
sg18
g17
sg19
V/usr/X11R6/lib/X11/fonts/TTF/luximr.ttf
p488
sg21
g22
sbag1
(g8
g3
NtRp489
(dp490
g11
g17
sg13
VSystem Font
p491
sg15
I400
sg16
g17
sg18
g17
sg19
V/System/Library/Fonts/SFNSText-RegularItalicG3.otf
p492
sg21
g22
sbag1
(g8
g3
NtRp493
(dp494
g11
g17
sg13
VPilGi
p495
sg15
I400
sg16
g17
sg18
g17
sg19
V/Library/Fonts/Pilgiche.ttf
p496
sg21
g22
sbag1
(g8
g3
NtRp497
(dp498
g11
g17
sg13
VEstrangelo Midyat
p499
sg15
I400
sg16
g17
sg18
g17
sg19
V/usr/X11/lib/X11/fonts/OTF/SyrCOMMidyat.otf
p500
sg21
g22
sbag1
(g8
g3
NtRp501
(dp502
g11
g17
sg13
VApple Braille
p503
sg15
I400
sg16
g17
sg18
g17
sg19
V/System/Library/Fonts/Apple Braille Outline 8 Dot.ttf
p504
sg21
g22
sbag1
(g8
g3
NtRp505
(dp506
g11
g17
sg13
VSystem Font
p507
sg15
I400
sg16
g17
sg18
g17
sg19
V/System/Library/Fonts/SFNSText-RegularItalicG2.otf
p508
sg21
g22
sbag1
(g8
g3
NtRp509
(dp510
g11
g17
sg13
VPlantagenet Cherokee
p511
sg15
I400
sg16
g17
sg18
g17
sg19
V/Library/Fonts/PlantagenetCherokee.ttf
p512
sg21
g22
sbag1
(g8
g3
NtRp513
(dp514
g11
g17
sg13
VMeslo LG L DZ for Powerline
p515
sg15
I400
sg16
g17
sg18
g17
sg19
V/Users/zhaoyu/Library/Fonts/Meslo LG L DZ Regular for Powerline.otf
p516
sg21
g22
sbag1
(g8
g3
NtRp517
(dp518
g11
g17
sg13
VTimes New Roman
p519
sg15
I700
sg16
g17
sg18
g17
sg19
V/Library/Fonts/Times New Roman Bold.ttf
p520
sg21
g22
sbag1
(g8
g3
NtRp521
(dp522
g11
g25
sg13
VSource Code Pro
p523
sg15
I900
sg16
g17
sg18
g17
sg19
V/Users/zhaoyu/Library/Fonts/SourceCodePro-BlackIt.ttf
p524
sg21
g22
sbag1
(g8
g3
NtRp525
(dp526
g11
g17
sg13
VFira Mono for Powerline
p527
sg15
I700
sg16
g17
sg18
g17
sg19
V/Users/zhaoyu/Library/Fonts/FuraMono-Bold Powerline.otf
p528
sg21
g22
sbag1
(g8
g3
NtRp529
(dp530
g11
g25
sg13
VTinos for Powerline
p531
sg15
I400
sg16
g17
sg18
g17
sg19
V/Users/zhaoyu/Library/Fonts/Tinos Italic for Powerline.ttf
p532
sg21
g22
sbag1
(g8
g3
NtRp533
(dp534
g11
g12
sg13
VLuxi Sans
p535
sg15
I700
sg16
g17
sg18
g17
sg19
V/usr/X11/lib/X11/fonts/TTF/luxisbi.ttf
p536
sg21
g22
sbag1
(g8
g3
NtRp537
(dp538
g11
g25
sg13
VArial
p539
sg15
I700
sg16
g17
sg18
g17
sg19
V/Library/Fonts/Arial Bold Italic.ttf
p540
sg21
g22
sbag1
(g8
g3
NtRp541
(dp542
g11
g17
sg13
VGoha-Tibeb Zemen
p543
sg15
I400
sg16
g17
sg18
g17
sg19
V/usr/X11/lib/X11/fonts/TTF/GohaTibebZemen.ttf
p544
sg21
g22
sbag1
(g8
g3
NtRp545
(dp546
g11
g17
sg13
VHeadLineA
p547
sg15
I400
sg16
g17
sg18
g17
sg19
V/Library/Fonts/HeadlineA.ttf
p548
sg21
g22
sbag1
(g8
g3
NtRp549
(dp550
g11
g17
sg13
VUbuntu Mono derivative Powerline
p551
sg15
I400
sg16
g17
sg18
g17
sg19
V/Users/zhaoyu/Library/Fonts/Ubuntu Mono derivative Powerline.ttf
p552
sg21
g22
sbag1
(g8
g3
NtRp553
(dp554
g11
g17
sg13
VSTIXVariants
p555
sg15
I400
sg16
g17
sg18
g17
sg19
V/Library/Fonts/STIXVar.otf
p556
sg21
g22
sbag1
(g8
g3
NtRp557
(dp558
g11
g17
sg13
VMishafi
p559
sg15
I400
sg16
g17
sg18
g17
sg19
V/Library/Fonts/Mishafi.ttf
p560
sg21
g22
sbag1
(g8
g3
NtRp561
(dp562
g11
g17
sg13
VSTIXVariants
p563
sg15
I700
sg16
g17
sg18
g17
sg19
V/Library/Fonts/STIXVarBol.otf
p564
sg21
g22
sbag1
(g8
g3
NtRp565
(dp566
g11
g17
sg13
VSystem Font
p567
sg15
I400
sg16
g17
sg18
g17
sg19
V/System/Library/Fonts/SFNSText-BoldItalic.otf
p568
sg21
g22
sbag1
(g8
g3
NtRp569
(dp570
g11
g17
sg13
VSystem Font
p571
sg15
I400
sg16
g17
sg18
g17
sg19
V/System/Library/Fonts/SFNSText-BoldItalicG1.otf
p572
sg21
g22
sbag1
(g8
g3
NtRp573
(dp574
g11
g17
sg13
VSerto Jerusalem
p575
sg15
I400
sg16
g17
sg18
g17
sg19
V/usr/X11/lib/X11/fonts/OTF/SyrCOMJerusalem.otf
p576
sg21
g22
sbag1
(g8
g3
NtRp577
(dp578
g11
g17
sg13
VSerto Batnan
p579
sg15
I400
sg16
g17
sg18
g17
sg19
V/usr/X11/lib/X11/fonts/OTF/SyrCOMBatnan.otf
p580
sg21
g22
sbag1
(g8
g3
NtRp581
(dp582
g11
g17
sg13
VSTFangsong
p583
sg15
I400
sg16
g17
sg18
g17
sg19
V/Library/Fonts/\u534e\u6587\u4eff\u5b8b.ttf
p584
sg21
g22
sbag1
(g8
g3
NtRp585
(dp586
g11
g17
sg13
VInconsolata-dz for Powerline
p587
sg15
I400
sg16
g17
sg18
g17
sg19
V/Users/zhaoyu/Library/Fonts/Inconsolata-dz for Powerline.otf
p588
sg21
g22
sbag1
(g8
g3
NtRp589
(dp590
g11
g25
sg13
VRoboto Mono for Powerline
p591
sg15
I400
sg16
g17
sg18
g17
sg19
V/Users/zhaoyu/Library/Fonts/Roboto Mono Italic for Powerline.ttf
p592
sg21
g22
sbag1
(g8
g3
NtRp593
(dp594
g11
g25
sg13
VSource Code Pro
p595
sg15
I700
sg16
g17
sg18
g17
sg19
V/Users/zhaoyu/Library/Fonts/SourceCodePro-SemiboldIt.ttf
p596
sg21
g22
sbag1
(g8
g3
NtRp597
(dp598
g11
g17
sg13
VSTHeiti
p599
sg15
I400
sg16
g17
sg18
g17
sg19
V/Library/Fonts/\u534e\u6587\u9ed1\u4f53.ttf
p600
sg21
g22
sbag1
(g8
g3
NtRp601
(dp602
g11
g17
sg13
VSystem Font
p603
sg15
I400
sg16
g17
sg18
g17
sg19
V/System/Library/Fonts/SFNSText-Regular.otf
p604
sg21
g22
sbag1
(g8
g3
NtRp605
(dp606
g11
g17
sg13
VSTIXIntegralsUp
p607
sg15
I700
sg16
g17
sg18
g17
sg19
V/Library/Fonts/STIXIntUpBol.otf
p608
sg21
g22
sbag1
(g8
g3
NtRp609
(dp610
g11
g17
sg13
VWawati TC
p611
sg15
I400
sg16
g17
sg18
g17
sg19
V/Library/Fonts/WawaTC-Regular.otf
p612
sg21
g22
sbag1
(g8
g3
NtRp613
(dp614
g11
g17
sg13
VSource Code Pro
p615
sg15
I700
sg16
g17
sg18
g17
sg19
V/Users/zhaoyu/Library/Fonts/SourceCodePro-Semibold.ttf
p616
sg21
g22
sbag1
(g8
g3
NtRp617
(dp618
g11
g17
sg13
VAnonymous Pro for Powerline
p619
sg15
I700
sg16
g17
sg18
g17
sg19
V/Users/zhaoyu/Library/Fonts/Anonymice Powerline Bold.ttf
p620
sg21
g22
sbag1
(g8
g3
NtRp621
(dp622
g11
g17
sg13
VSkia
p623
sg15
I400
sg16
g17
sg18
g17
sg19
V/Library/Fonts/Skia.ttf
p624
sg21
g22
sbag1
(g8
g3
NtRp625
(dp626
g11
g17
sg13
VSTIXSizeFiveSym
p627
sg15
I400
sg16
g17
sg18
g17
sg19
V/Library/Fonts/STIXSizFiveSymReg.otf
p628
sg21
g22
sbag1
(g8
g3
NtRp629
(dp630
g11
g17
sg13
VVerdana
p631
sg15
I400
sg16
g17
sg18
g17
sg19
V/Library/Fonts/Verdana.ttf
p632
sg21
g22
sbag1
(g8
g3
NtRp633
(dp634
g11
g17
sg13
VFarisi
p635
sg15
I400
sg16
g17
sg18
g17
sg19
V/Library/Fonts/Farisi.ttf
p636
sg21
g22
sbag1
(g8
g3
NtRp637
(dp638
g11
g25
sg13
VSource Code Pro
p639
sg15
I200
sg16
g17
sg18
g17
sg19
V/Users/zhaoyu/Library/Fonts/SourceCodePro-ExtraLightIt.ttf
p640
sg21
g22
sbag1
(g8
g3
NtRp641
(dp642
g11
g17
sg13
VDroid Sans Mono Dotted for Powerline
p643
sg15
I400
sg16
g17
sg18
g17
sg19
V/Users/zhaoyu/Library/Fonts/Droid Sans Mono Dotted for Powerline.ttf
p644
sg21
g22
sbag1
(g8
g3
NtRp645
(dp646
g11
g25
sg13
VRoboto Mono Thin for Powerline
p647
sg15
I400
sg16
g17
sg18
g17
sg19
V/Users/zhaoyu/Library/Fonts/Roboto Mono Thin Italic for Powerline.ttf
p648
sg21
g22
sbag1
(g8
g3
NtRp649
(dp650
g11
g17
sg13
VSerto Urhoy
p651
sg15
I700
sg16
g17
sg18
g17
sg19
V/usr/X11/lib/X11/fonts/OTF/SyrCOMUrhoyBold.otf
p652
sg21
g22
sbag1
(g8
g3
NtRp653
(dp654
g11
g17
sg13
VGurmukhi MT
p655
sg15
I400
sg16
g17
sg18
g17
sg19
V/Library/Fonts/Gurmukhi.ttf
p656
sg21
g22
sbag1
(g8
g3
NtRp657
(dp658
g11
g17
sg13
VBodoni 72 Smallcaps
p659
sg15
I400
sg16
g17
sg18
g17
sg19
V/Library/Fonts/Bodoni 72 Smallcaps Book.ttf
p660
sg21
g22
sbag1
(g8
g3
NtRp661
(dp662
g11
g17
sg13
VYuGothic
p663
sg15
I700
sg16
g17
sg18
g17
sg19
V/Library/Fonts/Yu Gothic Bold.otf
p664
sg21
g22
sbag1
(g8
g3
NtRp665
(dp666
g11
g17
sg13
VSource Code Pro
p667
sg15
I900
sg16
g17
sg18
g17
sg19
V/Users/zhaoyu/Library/Fonts/SourceCodePro-Black.ttf
p668
sg21
g22
sbag1
(g8
g3
NtRp669
(dp670
g11
g17
sg13
VSystem Font
p671
sg15
I400
sg16
g17
sg18
g17
sg19
V/System/Library/Fonts/SFNSText-RegularItalicG1.otf
p672
sg21
g22
sbag1
(g8
g3
NtRp673
(dp674
g11
g17
sg13
VSystem Font
p675
sg15
I400
sg16
g17
sg18
g17
sg19
V/System/Library/Fonts/SFNSText-BoldItalicG3.otf
p676
sg21
g22
sbag1
(g8
g3
NtRp677
(dp678
g11
g17
sg13
VSystem Font
p679
sg15
I400
sg16
g17
sg18
g17
sg19
V/System/Library/Fonts/SFNSText-Bold.otf
p680
sg21
g22
sbag1
(g8
g3
NtRp681
(dp682
g11
g17
sg13
VLuxi Sans
p683
sg15
I400
sg16
g17
sg18
g17
sg19
V/usr/X11/lib/X11/fonts/TTF/luxisr.ttf
p684
sg21
g22
sbag1
(g8
g3
NtRp685
(dp686
g11
g17
sg13
VMeslo LG L for Powerline
p687
sg15
I400
sg16
g17
sg18
g17
sg19
V/Users/zhaoyu/Library/Fonts/Meslo LG L Regular for Powerline.otf
p688
sg21
g22
sbag1
(g8
g3
NtRp689
(dp690
g11
g25
sg13
VArial
p691
sg15
I400
sg16
g17
sg18
g17
sg19
V/Library/Fonts/Arial Italic.ttf
p692
sg21
g22
sbag1
(g8
g3
NtRp693
(dp694
g11
g17
sg13
VEast Syriac Adiabene
p695
sg15
I400
sg16
g17
sg18
g17
sg19
V/usr/X11/lib/X11/fonts/OTF/SyrCOMAdiabene.otf
p696
sg21
g22
sbag1
(g8
g3
NtRp697
(dp698
g11
g17
sg13
VTinos for Powerline
p699
sg15
I400
sg16
g17
sg18
g17
sg19
V/Users/zhaoyu/Library/Fonts/Tinos for Powerline.ttf
p700
sg21
g22
sbag1
(g8
g3
NtRp701
(dp702
g11
g17
sg13
VSystem Font
p703
sg15
I400
sg16
g17
sg18
g17
sg19
V/System/Library/Fonts/SFNSDisplay-Light.otf
p704
sg21
g22
sbag1
(g8
g3
NtRp705
(dp706
g11
g25
sg13
VSTIXNonUnicode
p707
sg15
I700
sg16
g17
sg18
g17
sg19
V/Library/Fonts/STIXNonUniBolIta.otf
p708
sg21
g22
sbag1
(g8
g3
NtRp709
(dp710
g11
g17
sg13
VApple Braille
p711
sg15
I400
sg16
g17
sg18
g17
sg19
V/System/Library/Fonts/Apple Braille Pinpoint 8 Dot.ttf
p712
sg21
g22
sbag1
(g8
g3
NtRp713
(dp714
g11
g17
sg13
VLuxi Serif
p715
sg15
I700
sg16
g17
sg18
g17
sg19
V/usr/X11R6/lib/X11/fonts/TTF/luxirb.ttf
p716
sg21
g22
sbag1
(g8
g3
NtRp717
(dp718
g11
g25
sg13
VGeorgia
p719
sg15
I400
sg16
g17
sg18
g17
sg19
V/Library/Fonts/Georgia Italic.ttf
p720
sg21
g22
sbag1
(g8
g3
NtRp721
(dp722
g11
g17
sg13
VApple Braille
p723
sg15
I400
sg16
g17
sg18
g17
sg19
V/System/Library/Fonts/Apple Braille Outline 6 Dot.ttf
p724
sg21
g22
sbag1
(g8
g3
NtRp725
(dp726
g11
g17
sg13
VCousine for Powerline
p727
sg15
I700
sg16
g17
sg18
g17
sg19
V/Users/zhaoyu/Library/Fonts/Cousine Bold for Powerline.ttf
p728
sg21
g22
sbag1
(g8
g3
NtRp729
(dp730
g11
g25
sg13
VCourier New
p731
sg15
I700
sg16
g17
sg18
g17
sg19
V/Library/Fonts/Courier New Bold Italic.ttf
p732
sg21
g22
sbag1
(g8
g3
NtRp733
(dp734
g11
g17
sg13
VWawati SC
p735
sg15
I400
sg16
g17
sg18
g17
sg19
V/Library/Fonts/WawaSC-Regular.otf
p736
sg21
g22
sbag1
(g8
g3
NtRp737
(dp738
g11
g17
sg13
VEstrangelo Talada
p739
sg15
I400
sg16
g17
sg18
g17
sg19
V/usr/X11/lib/X11/fonts/OTF/SyrCOMTalada.otf
p740
sg21
g22
sbag1
(g8
g3
NtRp741
(dp742
g11
g17
sg13
VSerto Kharput
p743
sg15
I400
sg16
g17
sg18
g17
sg19
V/usr/X11/lib/X11/fonts/OTF/SyrCOMKharput.otf
p744
sg21
g22
sbag1
(g8
g3
NtRp745
(dp746
g11
g17
sg13
VSystem Font
p747
sg15
I400
sg16
g17
sg18
g17
sg19
V/System/Library/Fonts/SFNSText-RegularG3.otf
p748
sg21
g22
sbag1
(g8
g3
NtRp749
(dp750
g11
g17
sg13
VArial Rounded MT Bold
p751
sg15
I700
sg16
g17
sg18
g17
sg19
V/Library/Fonts/Arial Rounded Bold.ttf
p752
sg21
g22
sbag1
(g8
g3
NtRp753
(dp754
g11
g25
sg13
VSource Code Pro
p755
sg15
I500
sg16
g17
sg18
g17
sg19
V/Users/zhaoyu/Library/Fonts/SourceCodePro-MediumIt.ttf
p756
sg21
g22
sbag1
(g8
g3
NtRp757
(dp758
g11
g25
sg13
VAnonymous Pro for Powerline
p759
sg15
I700
sg16
g17
sg18
g17
sg19
V/Users/zhaoyu/Library/Fonts/Anonymice Powerline Bold Italic.ttf
p760
sg21
g22
sbag1
(g8
g3
NtRp761
(dp762
g11
g17
sg13
VRoboto Mono for Powerline
p763
sg15
I400
sg16
g17
sg18
g17
sg19
V/Users/zhaoyu/Library/Fonts/Roboto Mono for Powerline.ttf
p764
sg21
g22
sbag1
(g8
g3
NtRp765
(dp766
g11
g25
sg13
VCousine for Powerline
p767
sg15
I700
sg16
g17
sg18
g17
sg19
V/Users/zhaoyu/Library/Fonts/Cousine Bold Italic for Powerline.ttf
p768
sg21
g22
sbag1
(g8
g3
NtRp769
(dp770
g11
g17
sg13
VSystem Font
p771
sg15
I400
sg16
g17
sg18
g17
sg19
V/System/Library/Fonts/SFNSText-Semibold.otf
p772
sg21
g22
sbag1
(g8
g3
NtRp773
(dp774
g11
g17
sg13
VPCMyungjo
p775
sg15
I400
sg16
g17
sg18
g17
sg19
V/Library/Fonts/PCmyoungjo.ttf
p776
sg21
g22
sbag1
(g8
g3
NtRp777
(dp778
g11
g17
sg13
V.LastResort
p779
sg15
I400
sg16
g17
sg18
g17
sg19
V/System/Library/Fonts/LastResort.ttf
p780
sg21
g22
sbag1
(g8
g3
NtRp781
(dp782
g11
g25
sg13
VVerdana
p783
sg15
I700
sg16
g17
sg18
g17
sg19
V/Library/Fonts/Verdana Bold Italic.ttf
p784
sg21
g22
sbag1
(g8
g3
NtRp785
(dp786
g11
g17
sg13
VEstrangelo Quenneshrin
p787
sg15
I400
sg16
g17
sg18
g17
sg19
V/usr/X11/lib/X11/fonts/OTF/SyrCOMQenNeshrin.otf
p788
sg21
g22
sbag1
(g8
g3
NtRp789
(dp790
g11
g17
sg13
VLiHei Pro
p791
sg15
I400
sg16
g17
sg18
g17
sg19
V/Library/Fonts/\u5137\u9ed1 Pro.ttf
p792
sg21
g22
sbag1
(g8
g3
NtRp793
(dp794
g11
g17
sg13
VSystem Font
p795
sg15
I400
sg16
g17
sg18
g17
sg19
V/System/Library/Fonts/SFNSText-LightItalic.otf
p796
sg21
g22
sbag1
(g8
g3
NtRp797
(dp798
g11
g17
sg13
VInaiMathi
p799
sg15
I400
sg16
g17
sg18
g17
sg19
V/Library/Fonts/InaiMathi.ttf
p800
sg21
g22
sbag1
(g8
g3
NtRp801
(dp802
g11
g17
sg13
VSystem Font
p803
sg15
I400
sg16
g17
sg18
g17
sg19
V/System/Library/Fonts/SFNSText-BoldG2.otf
p804
sg21
g22
sbag1
(g8
g3
NtRp805
(dp806
g11
g17
sg13
VSTIXIntegralsSm
p807
sg15
I400
sg16
g17
sg18
g17
sg19
V/Library/Fonts/STIXIntSmReg.otf
p808
sg21
g22
sbag1
(g8
g3
NtRp809
(dp810
g11
g17
sg13
VKokonor
p811
sg15
I400
sg16
g17
sg18
g17
sg19
V/Library/Fonts/Kokonor.ttf
p812
sg21
g22
sbag1
(g8
g3
NtRp813
(dp814
g11
g17
sg13
Vmonofur for Powerline
p815
sg15
I400
sg16
g17
sg18
g17
sg19
V/Users/zhaoyu/Library/Fonts/Monofur for Powerline.ttf
p816
sg21
g22
sbag1
(g8
g3
NtRp817
(dp818
g11
g25
sg13
VVerdana
p819
sg15
I400
sg16
g17
sg18
g17
sg19
V/Library/Fonts/Verdana Italic.ttf
p820
sg21
g22
sbag1
(g8
g3
NtRp821
(dp822
g11
g17
sg13
VSTIXGeneral
p823
sg15
I700
sg16
g17
sg18
g17
sg19
V/Library/Fonts/STIXGeneralBol.otf
p824
sg21
g22
sbag1
(g8
g3
NtRp825
(dp826
g11
g17
sg13
VApple Braille
p827
sg15
I400
sg16
g17
sg18
g17
sg19
V/System/Library/Fonts/Apple Braille.ttf
p828
sg21
g22
sbag1
(g8
g3
NtRp829
(dp830
g11
g17
sg13
VSource Code Pro
p831
sg15
I200
sg16
g17
sg18
g17
sg19
V/Users/zhaoyu/Library/Fonts/SourceCodePro-Light.ttf
p832
sg21
g22
sbag1
(g8
g3
NtRp833
(dp834
g11
g17
sg13
VSource Code Pro for Powerline
p835
sg15
I700
sg16
g17
sg18
g17
sg19
V/Users/zhaoyu/Library/Fonts/Sauce Code Powerline Bold.otf
p836
sg21
g22
sbag1
(g8
g3
NtRp837
(dp838
g11
g17
sg13
VSystem Font
p839
sg15
I400
sg16
g17
sg18
g17
sg19
V/System/Library/Fonts/SFNSText-Light.otf
p840
sg21
g22
sbag1
(g8
g3
NtRp841
(dp842
g11
g17
sg13
VSystem Font
p843
sg15
I400
sg16
g17
sg18
g17
sg19
V/System/Library/Fonts/SFNSDisplay-Ultralight.otf
p844
sg21
g22
sbag1
(g8
g3
NtRp845
(dp846
g11
g17
sg13
VChalkduster
p847
sg15
I400
sg16
g17
sg18
g17
sg19
V/Library/Fonts/Chalkduster.ttf
p848
sg21
g22
sbag1
(g8
g3
NtRp849
(dp850
g11
g17
sg13
VLiberation Mono for Powerline
p851
sg15
I400
sg16
g17
sg18
g17
sg19
V/Users/zhaoyu/Library/Fonts/Literation Mono Powerline.ttf
p852
sg21
g22
sbag1
(g8
g3
NtRp853
(dp854
g11
g17
sg13
VEstrangelo Antioch
p855
sg15
I400
sg16
g17
sg18
g17
sg19
V/usr/X11/lib/X11/fonts/OTF/SyrCOMAntioch.otf
p856
sg21
g22
sbag1
(g8
g3
NtRp857
(dp858
g11
g17
sg13
VWeibei TC
p859
sg15
I700
sg16
g17
sg18
g17
sg19
V/Library/Fonts/WeibeiTC-Bold.otf
p860
sg21
g22
sbag1
(g8
g3
NtRp861
(dp862
g11
g25
sg13
VLiberation Mono for Powerline
p863
sg15
I400
sg16
g17
sg18
g17
sg19
V/Users/zhaoyu/Library/Fonts/Literation Mono Powerline Italic.ttf
p864
sg21
g22
sbag1
(g8
g3
NtRp865
(dp866
g11
g25
sg13
VSource Code Pro
p867
sg15
I700
sg16
g17
sg18
g17
sg19
V/Users/zhaoyu/Library/Fonts/SourceCodePro-BoldIt.ttf
p868
sg21
g22
sbag1
(g8
g3
NtRp869
(dp870
g11
g17
sg13
VSTIXNonUnicode
p871
sg15
I400
sg16
g17
sg18
g17
sg19
V/Library/Fonts/STIXNonUni.otf
p872
sg21
g22
sbag1
(g8
g3
NtRp873
(dp874
g11
g17
sg13
VEstrangelo Edessa
p875
sg15
I400
sg16
g17
sg18
g17
sg19
V/usr/X11/lib/X11/fonts/OTF/SyrCOMEdessa.otf
p876
sg21
g22
sbag1
(g8
g3
NtRp877
(dp878
g11
g25
sg13
VHack
p879
sg15
I700
sg16
g17
sg18
g17
sg19
V/Users/zhaoyu/Library/Fonts/Hack-BoldItalic.ttf
p880
sg21
g22
sbag1
(g8
g3
NtRp881
(dp882
g11
g17
sg13
VOsaka
p883
sg15
I400
sg16
g17
sg18
g17
sg19
V/Library/Fonts/OsakaMono.ttf
p884
sg21
g22
sbag1
(g8
g3
NtRp885
(dp886
g11
g25
sg13
VSTIXNonUnicode
p887
sg15
I400
sg16
g17
sg18
g17
sg19
V/Library/Fonts/STIXNonUniIta.otf
p888
sg21
g22
sbag1
(g8
g3
NtRp889
(dp890
g11
g17
sg13
VSTIXIntegralsUp
p891
sg15
I400
sg16
g17
sg18
g17
sg19
V/Library/Fonts/STIXIntUpReg.otf
p892
sg21
g22
sbag1
(g8
g3
NtRp893
(dp894
g11
g17
sg13
VYuppy SC
p895
sg15
I400
sg16
g17
sg18
g17
sg19
V/Library/Fonts/YuppySC-Regular.otf
p896
sg21
g22
sbag1
(g8
g3
NtRp897
(dp898
g11
g17
sg13
VSource Code Pro
p899
sg15
I400
sg16
g17
sg18
g17
sg19
V/Users/zhaoyu/Library/Fonts/SourceCodePro-Regular.ttf
p900
sg21
g22
sbag1
(g8
g3
NtRp901
(dp902
g11
g17
sg13
VComic Sans MS
p903
sg15
I700
sg16
g17
sg18
g17
sg19
V/Library/Fonts/Comic Sans MS Bold.ttf
p904
sg21
g22
sbag1
(g8
g3
NtRp905
(dp906
g11
g17
sg13
VTrebuchet MS
p907
sg15
I400
sg16
g17
sg18
g17
sg19
V/Library/Fonts/Trebuchet MS.ttf
p908
sg21
g22
sbag1
(g8
g3
NtRp909
(dp910
g11
g17
sg13
VSource Code Pro for Powerline
p911
sg15
I500
sg16
g17
sg18
g17
sg19
V/Users/zhaoyu/Library/Fonts/Sauce Code Powerline Medium.otf
p912
sg21
g22
sbag1
(g8
g3
NtRp913
(dp914
g11
g17
sg13
VLuxi Serif
p915
sg15
I400
sg16
g17
sg18
g17
sg19
V/usr/X11R6/lib/X11/fonts/TTF/luxirr.ttf
p916
sg21
g22
sbag1
(g8
g3
NtRp917
(dp918
g11
g17
sg13
VCourier New
p919
sg15
I700
sg16
g17
sg18
g17
sg19
V/Library/Fonts/Courier New Bold.ttf
p920
sg21
g22
sbag1
(g8
g3
NtRp921
(dp922
g11
g17
sg13
VBig Caslon
p923
sg15
I500
sg16
g17
sg18
g17
sg19
V/Library/Fonts/BigCaslon.ttf
p924
sg21
g22
sbag1
(g8
g3
NtRp925
(dp926
g11
g17
sg13
VEstrangelo TurAbdin
p927
sg15
I400
sg16
g17
sg18
g17
sg19
V/usr/X11/lib/X11/fonts/OTF/SyrCOMTurAbdin.otf
p928
sg21
g22
sbag1
(g8
g3
NtRp929
(dp930
g11
g17
sg13
VDroid Sans Mono for Powerline
p931
sg15
I400
sg16
g17
sg18
g17
sg19
V/Users/zhaoyu/Library/Fonts/Droid Sans Mono for Powerline.otf
p932
sg21
g22
sbag1
(g8
g3
NtRp933
(dp934
g11
g17
sg13
VSystem Font
p935
sg15
I400
sg16
g17
sg18
g17
sg19
V/System/Library/Fonts/SFNSText-Heavy.otf
p936
sg21
g22
sbag1
(g8
g3
NtRp937
(dp938
g11
g25
sg13
VRoboto Mono for Powerline
p939
sg15
I700
sg16
g17
sg18
g17
sg19
V/Users/zhaoyu/Library/Fonts/Roboto Mono Bold Italic for Powerline.ttf
p940
sg21
g22
sbag1
(g8
g3
NtRp941
(dp942
g11
g17
sg13
VAyuthaya
p943
sg15
I400
sg16
g17
sg18
g17
sg19
V/Library/Fonts/Ayuthaya.ttf
p944
sg21
g22
sbag1
(g8
g3
NtRp945
(dp946
g11
g17
sg13
VHerculanum
p947
sg15
I400
sg16
g17
sg18
g17
sg19
V/Library/Fonts/Herculanum.ttf
p948
sg21
g22
sbag1
(g8
g3
NtRp949
(dp950
g11
g17
sg13
VWebdings
p951
sg15
I400
sg16
g17
sg18
g17
sg19
V/Library/Fonts/Webdings.ttf
p952
sg21
g22
sbag1
(g8
g3
NtRp953
(dp954
g11
g17
sg13
VSystem Font
p955
sg15
I400
sg16
g17
sg18
g17
sg19
V/System/Library/Fonts/SFNSDisplay-Black.otf
p956
sg21
g22
sbag1
(g8
g3
NtRp957
(dp958
g11
g17
sg13
VApple Braille
p959
sg15
I400
sg16
g17
sg18
g17
sg19
V/System/Library/Fonts/Apple Braille Pinpoint 6 Dot.ttf
p960
sg21
g22
sbag1
(g8
g3
NtRp961
(dp962
g11
g25
sg13
Vmonofur for Powerline
p963
sg15
I400
sg16
g17
sg18
g17
sg19
V/Users/zhaoyu/Library/Fonts/Monofur Italic for Powerline.ttf
p964
sg21
g22
sbag1
(g8
g3
NtRp965
(dp966
g11
g17
sg13
VSymbol
p967
sg15
I400
sg16
g17
sg18
g17
sg19
V/System/Library/Fonts/Symbol.ttf
p968
sg21
g22
sbag1
(g8
g3
NtRp969
(dp970
g11
g17
sg13
VSystem Font
p971
sg15
I400
sg16
g17
sg18
g17
sg19
V/System/Library/Fonts/SFNSText-MediumItalic.otf
p972
sg21
g22
sbag1
(g8
g3
NtRp973
(dp974
g11
g25
sg13
VTrebuchet MS
p975
sg15
I700
sg16
g17
sg18
g17
sg19
V/Library/Fonts/Trebuchet MS Bold Italic.ttf
p976
sg21
g22
sbag1
(g8
g3
NtRp977
(dp978
g11
g17
sg13
VEast Syriac Ctesiphon
p979
sg15
I400
sg16
g17
sg18
g17
sg19
V/usr/X11/lib/X11/fonts/OTF/SyrCOMCtesiphon.otf
p980
sg21
g22
sbag1
(g8
g3
NtRp981
(dp982
g11
g17
sg13
VSTHeiti
p983
sg15
I400
sg16
g17
sg18
g17
sg19
V/Library/Fonts/\u534e\u6587\u7ec6\u9ed1.ttf
p984
sg21
g22
sbag1
(g8
g3
NtRp985
(dp986
g11
g17
sg13
VSerto Malankara
p987
sg15
I400
sg16
g17
sg18
g17
sg19
V/usr/X11/lib/X11/fonts/OTF/SyrCOMMalankara.otf
p988
sg21
g22
sbag1
(g8
g3
NtRp989
(dp990
g11
g17
sg13
Vmonofur for Powerline
p991
sg15
I700
sg16
g17
sg18
g17
sg19
V/Users/zhaoyu/Library/Fonts/Monofur Bold for Powerline.ttf
p992
sg21
g22
sbag1
(g8
g3
NtRp993
(dp994
g11
g17
sg13
VWingdings 2
p995
sg15
I400
sg16
g17
sg18
g17
sg19
V/Library/Fonts/Wingdings 2.ttf
p996
sg21
g22
sbag1
(g8
g3
NtRp997
(dp998
g11
g17
sg13
VSignPainter
p999
sg15
I400
sg16
g17
sg18
g17
sg19
V/Library/Fonts/SignPainter.otf
p1000
sg21
g22
sbag1
(g8
g3
NtRp1001
(dp1002
g11
g17
sg13
VTahoma
p1003
sg15
I400
sg16
g17
sg18
g17
sg19
V/Library/Fonts/Tahoma.ttf
p1004
sg21
g22
sbag1
(g8
g3
NtRp1005
(dp1006
g11
g25
sg13
VBrush Script MT
p1007
sg15
I400
sg16
g17
sg18
g17
sg19
V/Library/Fonts/Brush Script.ttf
p1008
sg21
g22
sbag1
(g8
g3
NtRp1009
(dp1010
g11
g17
sg13
V.Keyboard
p1011
sg15
I400
sg16
g17
sg18
g17
sg19
V/System/Library/Fonts/Keyboard.ttf
p1012
sg21
g22
sbag1
(g8
g3
NtRp1013
(dp1014
g11
g17
sg13
VSerto Jerusalem
p1015
sg15
I700
sg16
g17
sg18
g17
sg19
V/usr/X11/lib/X11/fonts/OTF/SyrCOMJerusalemBold.otf
p1016
sg21
g22
sbag1
(g8
g3
NtRp1017
(dp1018
g11
g17
sg13
VSTIXSizeOneSym
p1019
sg15
I400
sg16
g17
sg18
g17
sg19
V/Library/Fonts/STIXSizOneSymReg.otf
p1020
sg21
g22
sbag1
(g8
g3
NtRp1021
(dp1022
g11
g17
sg13
VSTIXIntegralsUpSm
p1023
sg15
I400
sg16
g17
sg18
g17
sg19
V/Library/Fonts/STIXIntUpSmReg.otf
p1024
sg21
g22
sbag1
(g8
g3
NtRp1025
(dp1026
g11
g17
sg13
VAndale Mono
p1027
sg15
I400
sg16
g17
sg18
g17
sg19
V/Library/Fonts/Andale Mono.ttf
p1028
sg21
g22
sbag1
(g8
g3
NtRp1029
(dp1030
g11
g17
sg13
VKhmer Sangam MN
p1031
sg15
I400
sg16
g17
sg18
g17
sg19
V/Library/Fonts/Khmer Sangam MN.ttf
p1032
sg21
g22
sbag1
(g8
g3
NtRp1033
(dp1034
g11
g12
sg13
VLuxi Mono
p1035
sg15
I700
sg16
g17
sg18
g17
sg19
V/usr/X11R6/lib/X11/fonts/TTF/luximbi.ttf
p1036
sg21
g22
sbag1
(g8
g3
NtRp1037
(dp1038
g11
g25
sg13
VCousine for Powerline
p1039
sg15
I400
sg16
g17
sg18
g17
sg19
V/Users/zhaoyu/Library/Fonts/Cousine Italic for Powerline.ttf
p1040
sg21
g22
sbag1
(g8
g3
NtRp1041
(dp1042
g11
g17
sg13
VMicrosoft Sans Serif
p1043
sg15
I400
sg16
g17
sg18
g17
sg19
V/Library/Fonts/Microsoft Sans Serif.ttf
p1044
sg21
g22
sbag1
(g8
g3
NtRp1045
(dp1046
g11
g17
sg13
VSource Code Pro for Powerline
p1047
sg15
I200
sg16
g17
sg18
g17
sg19
V/Users/zhaoyu/Library/Fonts/Sauce Code Powerline ExtraLight.otf
p1048
sg21
g22
sbag1
(g8
g3
NtRp1049
(dp1050
g11
g17
sg13
VSTIXIntegralsUpD
p1051
sg15
I700
sg16
g17
sg18
g17
sg19
V/Library/Fonts/STIXIntUpDBol.otf
p1052
sg21
g22
sbag1
(g8
g3
NtRp1053
(dp1054
g11
g25
sg13
VSource Code Pro
p1055
sg15
I200
sg16
g17
sg18
g17
sg19
V/Users/zhaoyu/Library/Fonts/SourceCodePro-LightIt.ttf
p1056
sg21
g22
sbag1
(g8
g3
NtRp1057
(dp1058
g11
g17
sg13
VSTIXGeneral
p1059
sg15
I400
sg16
g17
sg18
g17
sg19
V/Library/Fonts/STIXGeneral.otf
p1060
sg21
g22
sbag1
(g8
g3
NtRp1061
(dp1062
g11
g25
sg13
VCourier New
p1063
sg15
I400
sg16
g17
sg18
g17
sg19
V/Library/Fonts/Courier New Italic.ttf
p1064
sg21
g22
sbag1
(g8
g3
NtRp1065
(dp1066
g11
g17
sg13
VArial Black
p1067
sg15
I900
sg16
g17
sg18
g17
sg19
V/Library/Fonts/Arial Black.ttf
p1068
sg21
g22
sbag1
(g8
g3
NtRp1069
(dp1070
g11
g25
sg13
VRoboto Mono Medium for Powerline
p1071
sg15
I500
sg16
g17
sg18
g17
sg19
V/Users/zhaoyu/Library/Fonts/Roboto Mono Medium Italic for Powerline.ttf
p1072
sg21
g22
sbag1
(g8
g3
NtRp1073
(dp1074
g11
g25
sg13
VSTIXGeneral
p1075
sg15
I400
sg16
g17
sg18
g17
sg19
V/Library/Fonts/STIXGeneralItalic.otf
p1076
sg21
g22
sbag1
(g8
g3
NtRp1077
(dp1078
g11
g17
sg13
VSerto Urhoy
p1079
sg15
I400
sg16
g17
sg18
g17
sg19
V/usr/X11/lib/X11/fonts/OTF/SyrCOMUrhoy.otf
p1080
sg21
g22
sbag1
(g8
g3
NtRp1081
(dp1082
g11
g17
sg13
VGoha-Tibeb Zemen
p1083
sg15
I400
sg16
g17
sg18
g17
sg19
V/usr/X11/lib/X11/fonts/OTF/GohaTibebZemen.otf
p1084
sg21
g22
sbag1
(g8
g3
NtRp1085
(dp1086
g11
g17
sg13
VSilom
p1087
sg15
I400
sg16
g17
sg18
g17
sg19
V/Library/Fonts/Silom.ttf
p1088
sg21
g22
sbag1
(g8
g3
NtRp1089
(dp1090
g11
g17
sg13
VDejaVu Sans Mono for Powerline
p1091
sg15
I400
sg16
g17
sg18
g17
sg19
V/Users/zhaoyu/Library/Fonts/DejaVu Sans Mono for Powerline.ttf
p1092
sg21
g22
sbag1
(g8
g3
NtRp1093
(dp1094
g11
g17
sg13
VWeibei SC
p1095
sg15
I700
sg16
g17
sg18
g17
sg19
V/Library/Fonts/WeibeiSC-Bold.otf
p1096
sg21
g22
sbag1
(g8
g3
NtRp1097
(dp1098
g11
g25
sg13
VSource Code Pro
p1099
sg15
I400
sg16
g17
sg18
g17
sg19
V/Users/zhaoyu/Library/Fonts/SourceCodePro-It.ttf
p1100
sg21
g22
sbag1
(g8
g3
NtRp1101
(dp1102
g11
g17
sg13
VYuppy TC
p1103
sg15
I400
sg16
g17
sg18
g17
sg19
V/Library/Fonts/YuppyTC-Regular.otf
p1104
sg21
g22
sbag1
(g8
g3
NtRp1105
(dp1106
g11
g17
sg13
VSystem Font
p1107
sg15
I400
sg16
g17
sg18
g17
sg19
V/System/Library/Fonts/SFNSText-RegularG1.otf
p1108
sg21
g22
sbag1
(g8
g3
NtRp1109
(dp1110
g11
g17
sg13
VSystem Font
p1111
sg15
I400
sg16
g17
sg18
g17
sg19
V/System/Library/Fonts/SFNSDisplay-Thin.otf
p1112
sg21
g22
sbag1
(g8
g3
NtRp1113
(dp1114
g11
g17
sg13
VSTIXSizeFourSym
p1115
sg15
I400
sg16
g17
sg18
g17
sg19
V/Library/Fonts/STIXSizFourSymReg.otf
p1116
sg21
g22
sbag1
(g8
g3
NtRp1117
(dp1118
g11
g17
sg13
VMeslo LG S for Powerline
p1119
sg15
I400
sg16
g17
sg18
g17
sg19
V/Users/zhaoyu/Library/Fonts/Meslo LG S Regular for Powerline.otf
p1120
sg21
g22
sbag1
(g8
g3
NtRp1121
(dp1122
g11
g17
sg13
VApple Chancery
p1123
sg15
I400
sg16
g17
sg18
g17
sg19
V/Library/Fonts/Apple Chancery.ttf
p1124
sg21
g22
sbag1
(g8
g3
NtRp1125
(dp1126
g11
g17
sg13
VAnonymous Pro for Powerline
p1127
sg15
I400
sg16
g17
sg18
g17
sg19
V/Users/zhaoyu/Library/Fonts/Anonymice Powerline.ttf
p1128
sg21
g22
sbag1
(g8
g3
NtRp1129
(dp1130
g11
g25
sg13
VRoboto Mono Light for Powerline
p1131
sg15
I200
sg16
g17
sg18
g17
sg19
V/Users/zhaoyu/Library/Fonts/Roboto Mono Light Italic for Powerline.ttf
p1132
sg21
g22
sbag1
(g8
g3
NtRp1133
(dp1134
g11
g17
sg13
VTeamViewer12
p1135
sg15
I400
sg16
g17
sg18
g17
sg19
V/Library/Fonts/TeamViewer12.otf
p1136
sg21
g22
sbag1
(g8
g3
NtRp1137
(dp1138
g11
g17
sg13
VWingdings 3
p1139
sg15
I400
sg16
g17
sg18
g17
sg19
V/Library/Fonts/Wingdings 3.ttf
p1140
sg21
g22
sbag1
(g8
g3
NtRp1141
(dp1142
g11
g25
sg13
VSTIXGeneral
p1143
sg15
I700
sg16
g17
sg18
g17
sg19
V/Library/Fonts/STIXGeneralBolIta.otf
p1144
sg21
g22
sbag1
(g8
g3
NtRp1145
(dp1146
g11
g25
sg13
VUbuntu Mono derivative Powerline
p1147
sg15
I700
sg16
g17
sg18
g17
sg19
V/Users/zhaoyu/Library/Fonts/Ubuntu Mono derivative Powerline Bold Italic.ttf
p1148
sg21
g22
sbag1
(g8
g3
NtRp1149
(dp1150
g11
g17
sg13
VSTIXIntegralsUpSm
p1151
sg15
I700
sg16
g17
sg18
g17
sg19
V/Library/Fonts/STIXIntUpSmBol.otf
p1152
sg21
g22
sbag1
(g8
g3
NtRp1153
(dp1154
g11
g17
sg13
VLao Sangam MN
p1155
sg15
I400
sg16
g17
sg18
g17
sg19
V/Library/Fonts/Lao Sangam MN.ttf
p1156
sg21
g22
sbag1
(g8
g3
NtRp1157
(dp1158
g11
g17
sg13
VTrattatello
p1159
sg15
I400
sg16
g17
sg18
g17
sg19
V/Library/Fonts/Trattatello.ttf
p1160
sg21
g22
sbag1
(g8
g3
NtRp1161
(dp1162
g11
g17
sg13
VLuxi Sans
p1163
sg15
I700
sg16
g17
sg18
g17
sg19
V/usr/X11R6/lib/X11/fonts/TTF/luxisb.ttf
p1164
sg21
g22
sbag1
(g8
g3
NtRp1165
(dp1166
g11
g17
sg13
VLiberation Mono for Powerline
p1167
sg15
I700
sg16
g17
sg18
g17
sg19
V/Users/zhaoyu/Library/Fonts/Literation Mono Powerline Bold.ttf
p1168
sg21
g22
sbag1
(g8
g3
NtRp1169
(dp1170
g11
g25
sg13
VUbuntu Mono derivative Powerline
p1171
sg15
I400
sg16
g17
sg18
g17
sg19
V/Users/zhaoyu/Library/Fonts/Ubuntu Mono derivative Powerline Italic.ttf
p1172
sg21
g22
sbag1
(g8
g3
NtRp1173
(dp1174
g11
g17
sg13
VSTIXSizeOneSym
p1175
sg15
I700
sg16
g17
sg18
g17
sg19
V/Library/Fonts/STIXSizOneSymBol.otf
p1176
sg21
g22
sbag1
(g8
g3
NtRp1177
(dp1178
g11
g17
sg13
VComic Sans MS
p1179
sg15
I400
sg16
g17
sg18
g17
sg19
V/Library/Fonts/Comic Sans MS.ttf
p1180
sg21
g22
sbag1
(g8
g3
NtRp1181
(dp1182
g11
g17
sg13
VSTIXSizeTwoSym
p1183
sg15
I400
sg16
g17
sg18
g17
sg19
V/Library/Fonts/STIXSizTwoSymReg.otf
p1184
sg21
g22
sbag1
(g8
g3
NtRp1185
(dp1186
g11
g17
sg13
VEstrangelo Nisibin Outline
p1187
sg15
I400
sg16
g17
sg18
g17
sg19
V/usr/X11/lib/X11/fonts/OTF/SyrCOMNisibinOutline.otf
p1188
sg21
g22
sbag1
(g8
g3
NtRp1189
(dp1190
g11
g17
sg13
VBodoni Ornaments
p1191
sg15
I400
sg16
g17
sg18
g17
sg19
V/Library/Fonts/Bodoni Ornaments.ttf
p1192
sg21
g22
sbag1
(g8
g3
NtRp1193
(dp1194
g11
g17
sg13
VSTIXSizeFourSym
p1195
sg15
I700
sg16
g17
sg18
g17
sg19
V/Library/Fonts/STIXSizFourSymBol.otf
p1196
sg21
g22
sbag1
(g8
g3
NtRp1197
(dp1198
g11
g17
sg13
VSystem Font
p1199
sg15
I400
sg16
g17
sg18
g17
sg19
V/System/Library/Fonts/SFNSText-BoldG3.otf
p1200
sg21
g22
sbag1
(g8
g3
NtRp1201
(dp1202
g11
g17
sg13
VArial
p1203
sg15
I700
sg16
g17
sg18
g17
sg19
V/Library/Fonts/Arial Bold.ttf
p1204
sg21
g22
sbag1
(g8
g3
NtRp1205
(dp1206
g11
g17
sg13
VSource Code Pro
p1207
sg15
I200
sg16
g17
sg18
g17
sg19
V/Users/zhaoyu/Library/Fonts/SourceCodePro-ExtraLight.ttf
p1208
sg21
g22
sbag1
(g8
g3
NtRp1209
(dp1210
g11
g17
sg13
VGeorgia
p1211
sg15
I700
sg16
g17
sg18
g17
sg19
V/Library/Fonts/Georgia Bold.ttf
p1212
sg21
g22
sbag1
(g8
g3
NtRp1213
(dp1214
g11
g17
sg13
VSystem Font
p1215
sg15
I400
sg16
g17
sg18
g17
sg19
V/System/Library/Fonts/SFNSDisplay-Semibold.otf
p1216
sg21
g22
sbag1
(g8
g3
NtRp1217
(dp1218
g11
g17
sg13
VSTIXIntegralsD
p1219
sg15
I400
sg16
g17
sg18
g17
sg19
V/Library/Fonts/STIXIntDReg.otf
p1220
sg21
g22
sbag1
(g8
g3
NtRp1221
(dp1222
g11
g17
sg13
VGungSeo
p1223
sg15
I400
sg16
g17
sg18
g17
sg19
V/Library/Fonts/Gungseouche.ttf
p1224
sg21
g22
sbag1
(g8
g3
NtRp1225
(dp1226
g11
g17
sg13
VSource Code Pro for Powerline
p1227
sg15
I200
sg16
g17
sg18
g17
sg19
V/Users/zhaoyu/Library/Fonts/Sauce Code Powerline Light.otf
p1228
sg21
g22
sbag1
(g8
g3
NtRp1229
(dp1230
g11
g25
sg13
VSerto Jerusalem
p1231
sg15
I400
sg16
g17
sg18
g17
sg19
V/usr/X11/lib/X11/fonts/OTF/SyrCOMJerusalemItalic.otf
p1232
sg21
g22
sbag1
(g8
g3
NtRp1233
(dp1234
g11
g17
sg13
VSource Code Pro for Powerline
p1235
sg15
I700
sg16
g17
sg18
g17
sg19
V/Users/zhaoyu/Library/Fonts/Sauce Code Powerline Semibold.otf
p1236
sg21
g22
sbag1
(g8
g3
NtRp1237
(dp1238
g11
g17
sg13
VSTIXSizeTwoSym
p1239
sg15
I700
sg16
g17
sg18
g17
sg19
V/Library/Fonts/STIXSizTwoSymBol.otf
p1240
sg21
g22
sbag1
(g8
g3
NtRp1241
(dp1242
g11
g17
sg13
VWingdings
p1243
sg15
I400
sg16
g17
sg18
g17
sg19
V/Library/Fonts/Wingdings.ttf
p1244
sg21
g22
sbag1
(g8
g3
NtRp1245
(dp1246
g11
g17
sg13
VImpact
p1247
sg15
I400
sg16
g17
sg18
g17
sg19
V/Library/Fonts/Impact.ttf
p1248
sg21
g22
sbag1
(g8
g3
NtRp1249
(dp1250
g11
g25
sg13
VHack
p1251
sg15
I400
sg16
g17
sg18
g17
sg19
V/Users/zhaoyu/Library/Fonts/Hack-Italic.ttf
p1252
sg21
g22
sbag1
(g8
g3
NtRp1253
(dp1254
g11
g17
sg13
VTahoma
p1255
sg15
I700
sg16
g17
sg18
g17
sg19
V/Library/Fonts/Tahoma Bold.ttf
p1256
sg21
g22
sbag1
(g8
g3
NtRp1257
(dp1258
g11
g17
sg13
VSTIXNonUnicode
p1259
sg15
I700
sg16
g17
sg18
g17
sg19
V/Library/Fonts/STIXNonUniBol.otf
p1260
sg21
g22
sbag1
(g8
g3
NtRp1261
(dp1262
g11
g25
sg13
VGeorgia
p1263
sg15
I700
sg16
g17
sg18
g17
sg19
V/Library/Fonts/Georgia Bold Italic.ttf
p1264
sg21
g22
sbag1
(g8
g3
NtRp1265
(dp1266
g11
g17
sg13
VSystem Font
p1267
sg15
I400
sg16
g17
sg18
g17
sg19
V/System/Library/Fonts/SFNSDisplay-Heavy.otf
p1268
sg21
g22
sbag1
(g8
g3
NtRp1269
(dp1270
g11
g17
sg13
VSTIXIntegralsUpD
p1271
sg15
I400
sg16
g17
sg18
g17
sg19
V/Library/Fonts/STIXIntUpDReg.otf
p1272
sg21
g22
sbag1
(g8
g3
NtRp1273
(dp1274
g11
g17
sg13
VSathu
p1275
sg15
I400
sg16
g17
sg18
g17
sg19
V/Library/Fonts/Sathu.ttf
p1276
sg21
g22
sbag1
(g8
g3
NtRp1277
(dp1278
g11
g17
sg13
VMeslo LG M for Powerline
p1279
sg15
I400
sg16
g17
sg18
g17
sg19
V/Users/zhaoyu/Library/Fonts/Meslo LG M Regular for Powerline.otf
p1280
sg21
g22
sbag1
(g8
g3
NtRp1281
(dp1282
g11
g17
sg13
VUbuntu Mono derivative Powerline
p1283
sg15
I700
sg16
g17
sg18
g17
sg19
V/Users/zhaoyu/Library/Fonts/Ubuntu Mono derivative Powerline Bold.ttf
p1284
sg21
g22
sbag1
(g8
g3
NtRp1285
(dp1286
g11
g17
sg13
VSystem Font
p1287
sg15
I400
sg16
g17
sg18
g17
sg19
V/System/Library/Fonts/SFNSDisplay-Regular.otf
p1288
sg21
g22
sbasS'defaultFamily'
p1289
(dp1290
Vafm
p1291
VHelvetica
p1292
sVttf
p1293
VBitstream Vera Sans
p1294
ssS'ttffiles'
p1295
(lp1296
g20
ag27
ag31
ag35
ag39
ag43
ag47
ag51
ag55
ag59
ag63
ag67
ag71
ag75
ag79
ag83
ag87
ag91
ag95
ag99
ag103
ag107
ag111
ag115
ag119
ag123
ag127
ag131
ag135
ag139
ag143
ag147
ag151
ag155
ag159
aV/usr/X11R6/lib/X11/fonts/TTF/VeraBd.ttf
p1297
ag163
ag167
ag171
aV/usr/X11/lib/X11/fonts/TTF/VeraIt.ttf
p1298
aV/usr/X11R6/lib/X11/fonts/TTF/VeraBI.ttf
p1299
ag175
ag179
ag183
ag187
ag191
ag195
ag199
ag203
aV/usr/X11/lib/X11/fonts/TTF/VeraSe.ttf
p1300
ag207
ag211
ag216
ag220
ag224
ag228
ag232
ag236
aV/usr/X11R6/lib/X11/fonts/TTF/VeraMoIt.ttf
p1301
ag240
ag244
aV/usr/X11/lib/X11/fonts/TTF/VeraBd.ttf
p1302
ag248
ag252
ag256
ag260
ag264
ag268
aV/usr/X11/lib/X11/fonts/TTF/Vera.ttf
p1303
aV/Library/Fonts/NISC18030.ttf
p1304
ag272
ag276
ag280
ag284
ag288
aV/usr/X11R6/lib/X11/fonts/TTF/VeraMoBI.ttf
p1305
ag292
ag296
ag300
ag304
ag308
ag312
ag316
ag320
ag324
ag328
ag332
ag336
aV/usr/X11R6/lib/X11/fonts/TTF/VeraMono.ttf
p1306
ag340
ag344
ag348
ag352
ag356
ag360
ag364
ag368
ag372
ag376
ag380
ag384
ag388
ag392
ag396
ag400
ag404
ag408
ag412
ag416
ag420
ag424
ag428
ag432
ag436
ag440
ag444
ag448
ag452
ag456
ag460
ag464
ag468
ag472
ag476
ag480
ag484
ag488
ag492
ag496
ag500
ag504
aV/usr/X11R6/lib/X11/fonts/TTF/VeraSe.ttf
p1307
ag508
ag512
ag516
ag520
ag524
ag528
ag532
ag536
ag540
ag544
ag548
ag552
ag556
ag560
ag564
ag568
ag572
ag576
ag580
ag584
ag588
ag592
aV/usr/X11/lib/X11/fonts/TTF/VeraMoBd.ttf
p1308
aV/usr/X11/lib/X11/fonts/TTF/VeraMono.ttf
p1309
ag596
ag600
ag604
ag608
ag612
ag616
ag620
ag624
ag628
ag632
aV/usr/X11R6/lib/X11/fonts/TTF/luxisbi.ttf
p1310
ag636
ag640
ag644
ag648
ag652
ag656
ag660
ag664
ag668
ag672
aV/System/Library/Fonts/Apple Color Emoji.ttf
p1311
ag676
ag680
ag684
ag688
ag692
ag696
ag700
ag704
aV/usr/X11/lib/X11/fonts/TTF/VeraMoBI.ttf
p1312
ag708
ag712
ag716
ag720
ag724
ag728
ag732
ag736
ag740
ag744
ag748
ag752
ag756
ag760
aV/usr/X11/lib/X11/fonts/TTF/luxirri.ttf
p1313
ag764
ag768
ag772
ag776
ag780
ag784
ag788
ag792
ag796
ag800
ag804
ag808
ag812
aV/usr/X11R6/lib/X11/fonts/TTF/VeraIt.ttf
p1314
ag816
ag820
ag824
ag828
ag832
ag836
ag840
ag844
ag848
ag852
aV/usr/X11R6/lib/X11/fonts/TTF/Vera.ttf
p1315
ag856
ag860
ag864
ag868
ag872
aV/usr/X11/lib/X11/fonts/TTF/luxirbi.ttf
p1316
ag876
ag880
ag884
aV/usr/X11/lib/X11/fonts/TTF/luxirb.ttf
p1317
ag888
aV/usr/X11/lib/X11/fonts/TTF/VeraMoIt.ttf
p1318
ag892
ag896
ag900
ag904
ag908
ag912
ag916
aV/usr/X11/lib/X11/fonts/TTF/VeraBI.ttf
p1319
ag920
ag924
ag928
ag932
ag936
ag940
ag944
ag948
ag952
ag956
ag960
ag964
ag968
ag972
aV/usr/X11R6/lib/X11/fonts/TTF/luxisr.ttf
p1320
ag976
aV/usr/X11/lib/X11/fonts/TTF/VeraSeBd.ttf
p1321
ag980
ag984
ag988
ag992
ag996
ag1000
ag1004
ag1008
ag1012
aV/usr/X11R6/lib/X11/fonts/TTF/VeraSeBd.ttf
p1322
ag1016
ag1020
ag1024
ag1028
ag1032
ag1036
ag1040
ag1044
ag1048
ag1052
ag1056
ag1060
ag1064
ag1068
aV/usr/X11/lib/X11/fonts/TTF/luxirr.ttf
p1323
ag1072
ag1076
ag1080
ag1084
ag1088
ag1092
ag1096
ag1100
ag1104
ag1108
ag1112
ag1116
ag1120
ag1124
aV/usr/X11R6/lib/X11/fonts/TTF/luximb.ttf
p1324
aV/usr/X11/lib/X11/fonts/TTF/luximr.ttf
p1325
ag1128
ag1132
ag1136
ag1140
ag1144
ag1148
ag1152
ag1156
aV/usr/X11R6/lib/X11/fonts/TTF/GohaTibebZemen.ttf
p1326
ag1160
ag1164
ag1168
ag1172
ag1176
ag1180
ag1184
ag1188
ag1192
ag1196
ag1200
aV/usr/X11R6/lib/X11/fonts/TTF/VeraMoBd.ttf
p1327
ag1204
ag1208
aV/usr/X11/lib/X11/fonts/TTF/luxisb.ttf
p1328
ag1212
ag1216
ag1220
ag1224
ag1228
ag1232
ag1236
aV/usr/X11R6/lib/X11/fonts/TTF/luxisri.ttf
p1329
ag1240
ag1244
ag1248
ag1252
ag1256
ag1260
ag1264
ag1268
ag1272
ag1276
aV/usr/X11R6/lib/X11/fonts/TTF/luximri.ttf
p1330
ag1280
ag1284
ag1288
aV/usr/X11/lib/X11/fonts/TTF/luximbi.ttf
p1331
asS'_FontManager__default_weight'
p1332
Vnormal
p1333
sS'_version'
p1334
I101
sS'default_size'
p1335
NsS'defaultFont'
p1336
(dp1337
g1291
V/Users/zhaoyu/soft/anaconda2/envs/uvcdat_nightly/lib/python2.7/site-packages/matplotlib/mpl-data/fonts/afm/phvlo8a.afm
p1338
sg1293
g131
ssS'afmfiles'
p1339
(lp1340
g1338
aV/Users/zhaoyu/soft/anaconda2/envs/uvcdat_nightly/lib/python2.7/site-packages/matplotlib/mpl-data/fonts/afm/pcrr8a.afm
p1341
aV/Users/zhaoyu/soft/anaconda2/envs/uvcdat_nightly/lib/python2.7/site-packages/matplotlib/mpl-data/fonts/afm/pagd8a.afm
p1342
aV/Users/zhaoyu/soft/anaconda2/envs/uvcdat_nightly/lib/python2.7/site-packages/matplotlib/mpl-data/fonts/afm/pbkdi8a.afm
p1343
aV/Users/zhaoyu/soft/anaconda2/envs/uvcdat_nightly/lib/python2.7/site-packages/matplotlib/mpl-data/fonts/afm/pagdo8a.afm
p1344
aV/Users/zhaoyu/soft/anaconda2/envs/uvcdat_nightly/lib/python2.7/site-packages/matplotlib/mpl-data/fonts/afm/pncbi8a.afm
p1345
aV/Users/zhaoyu/soft/anaconda2/envs/uvcdat_nightly/lib/python2.7/site-packages/matplotlib/mpl-data/fonts/afm/phvr8a.afm
p1346
aV/Users/zhaoyu/soft/anaconda2/envs/uvcdat_nightly/lib/python2.7/site-packages/matplotlib/mpl-data/fonts/afm/putri8a.afm
p1347
aV/Users/zhaoyu/soft/anaconda2/envs/uvcdat_nightly/lib/python2.7/site-packages/matplotlib/mpl-data/fonts/pdfcorefonts/Courier-BoldOblique.afm
p1348
aV/Users/zhaoyu/soft/anaconda2/envs/uvcdat_nightly/lib/python2.7/site-packages/matplotlib/mpl-data/fonts/afm/pagko8a.afm
p1349
aV/Users/zhaoyu/soft/anaconda2/envs/uvcdat_nightly/lib/python2.7/site-packages/matplotlib/mpl-data/fonts/afm/pplri8a.afm
p1350
aV/Users/zhaoyu/soft/anaconda2/envs/uvcdat_nightly/lib/python2.7/site-packages/matplotlib/mpl-data/fonts/afm/pbkl8a.afm
p1351
aV/Users/zhaoyu/soft/anaconda2/envs/uvcdat_nightly/lib/python2.7/site-packages/matplotlib/mpl-data/fonts/afm/pplb8a.afm
p1352
aV/Users/zhaoyu/soft/anaconda2/envs/uvcdat_nightly/lib/python2.7/site-packages/matplotlib/mpl-data/fonts/afm/cmex10.afm
p1353
aV/Users/zhaoyu/soft/anaconda2/envs/uvcdat_nightly/lib/python2.7/site-packages/matplotlib/mpl-data/fonts/afm/ptmb8a.afm
p1354
aV/Users/zhaoyu/soft/anaconda2/envs/uvcdat_nightly/lib/python2.7/site-packages/matplotlib/mpl-data/fonts/afm/phvb8a.afm
p1355
aV/Users/zhaoyu/soft/anaconda2/envs/uvcdat_nightly/lib/python2.7/site-packages/matplotlib/mpl-data/fonts/afm/ptmri8a.afm
p1356
aV/Users/zhaoyu/soft/anaconda2/envs/uvcdat_nightly/lib/python2.7/site-packages/matplotlib/mpl-data/fonts/afm/psyr.afm
p1357
aV/Users/zhaoyu/soft/anaconda2/envs/uvcdat_nightly/lib/python2.7/site-packages/matplotlib/mpl-data/fonts/afm/pcrb8a.afm
p1358
aV/Users/zhaoyu/soft/anaconda2/envs/uvcdat_nightly/lib/python2.7/site-packages/matplotlib/mpl-data/fonts/pdfcorefonts/Times-Italic.afm
p1359
aV/Users/zhaoyu/soft/anaconda2/envs/uvcdat_nightly/lib/python2.7/site-packages/matplotlib/mpl-data/fonts/afm/phvr8an.afm
p1360
aV/Users/zhaoyu/soft/anaconda2/envs/uvcdat_nightly/lib/python2.7/site-packages/matplotlib/mpl-data/fonts/afm/pbkli8a.afm
p1361
aV/Users/zhaoyu/soft/anaconda2/envs/uvcdat_nightly/lib/python2.7/site-packages/matplotlib/mpl-data/fonts/afm/pcrro8a.afm
p1362
aV/Users/zhaoyu/soft/anaconda2/envs/uvcdat_nightly/lib/python2.7/site-packages/matplotlib/mpl-data/fonts/pdfcorefonts/ZapfDingbats.afm
p1363
aV/Users/zhaoyu/soft/anaconda2/envs/uvcdat_nightly/lib/python2.7/site-packages/matplotlib/mpl-data/fonts/afm/pncr8a.afm
p1364
aV/Users/zhaoyu/soft/anaconda2/envs/uvcdat_nightly/lib/python2.7/site-packages/matplotlib/mpl-data/fonts/pdfcorefonts/Times-Roman.afm
p1365
aV/Users/zhaoyu/soft/anaconda2/envs/uvcdat_nightly/lib/python2.7/site-packages/matplotlib/mpl-data/fonts/afm/phvl8a.afm
p1366
aV/Users/zhaoyu/soft/anaconda2/envs/uvcdat_nightly/lib/python2.7/site-packages/matplotlib/mpl-data/fonts/pdfcorefonts/Helvetica.afm
p1367
aV/Users/zhaoyu/soft/anaconda2/envs/uvcdat_nightly/lib/python2.7/site-packages/matplotlib/mpl-data/fonts/afm/pncri8a.afm
p1368
aV/Users/zhaoyu/soft/anaconda2/envs/uvcdat_nightly/lib/python2.7/site-packages/matplotlib/mpl-data/fonts/afm/pcrbo8a.afm
p1369
aV/Users/zhaoyu/soft/anaconda2/envs/uvcdat_nightly/lib/python2.7/site-packages/matplotlib/mpl-data/fonts/afm/pplbi8a.afm
p1370
aV/Users/zhaoyu/soft/anaconda2/envs/uvcdat_nightly/lib/python2.7/site-packages/matplotlib/mpl-data/fonts/afm/phvro8an.afm
p1371
aV/Users/zhaoyu/soft/anaconda2/envs/uvcdat_nightly/lib/python2.7/site-packages/matplotlib/mpl-data/fonts/pdfcorefonts/Times-Bold.afm
p1372
aV/Users/zhaoyu/soft/anaconda2/envs/uvcdat_nightly/lib/python2.7/site-packages/matplotlib/mpl-data/fonts/pdfcorefonts/Courier-Oblique.afm
p1373
aV/Users/zhaoyu/soft/anaconda2/envs/uvcdat_nightly/lib/python2.7/site-packages/matplotlib/mpl-data/fonts/afm/ptmr8a.afm
p1374
aV/Users/zhaoyu/soft/anaconda2/envs/uvcdat_nightly/lib/python2.7/site-packages/matplotlib/mpl-data/fonts/pdfcorefonts/Helvetica-BoldOblique.afm
p1375
aV/Users/zhaoyu/soft/anaconda2/envs/uvcdat_nightly/lib/python2.7/site-packages/matplotlib/mpl-data/fonts/afm/pbkd8a.afm
p1376
aV/Users/zhaoyu/soft/anaconda2/envs/uvcdat_nightly/lib/python2.7/site-packages/matplotlib/mpl-data/fonts/afm/phvbo8a.afm
p1377
aV/Users/zhaoyu/soft/anaconda2/envs/uvcdat_nightly/lib/python2.7/site-packages/matplotlib/mpl-data/fonts/afm/phvb8an.afm
p1378
aV/Users/zhaoyu/soft/anaconda2/envs/uvcdat_nightly/lib/python2.7/site-packages/matplotlib/mpl-data/fonts/pdfcorefonts/Helvetica-Bold.afm
p1379
aV/Users/zhaoyu/soft/anaconda2/envs/uvcdat_nightly/lib/python2.7/site-packages/matplotlib/mpl-data/fonts/afm/ptmbi8a.afm
p1380
aV/Users/zhaoyu/soft/anaconda2/envs/uvcdat_nightly/lib/python2.7/site-packages/matplotlib/mpl-data/fonts/afm/cmtt10.afm
p1381
aV/Users/zhaoyu/soft/anaconda2/envs/uvcdat_nightly/lib/python2.7/site-packages/matplotlib/mpl-data/fonts/pdfcorefonts/Courier.afm
p1382
aV/Users/zhaoyu/soft/anaconda2/envs/uvcdat_nightly/lib/python2.7/site-packages/matplotlib/mpl-data/fonts/afm/pagk8a.afm
p1383
aV/Users/zhaoyu/soft/anaconda2/envs/uvcdat_nightly/lib/python2.7/site-packages/matplotlib/mpl-data/fonts/pdfcorefonts/Times-BoldItalic.afm
p1384
aV/Users/zhaoyu/soft/anaconda2/envs/uvcdat_nightly/lib/python2.7/site-packages/matplotlib/mpl-data/fonts/afm/cmr10.afm
p1385
aV/Users/zhaoyu/soft/anaconda2/envs/uvcdat_nightly/lib/python2.7/site-packages/matplotlib/mpl-data/fonts/afm/phvro8a.afm
p1386
aV/Users/zhaoyu/soft/anaconda2/envs/uvcdat_nightly/lib/python2.7/site-packages/matplotlib/mpl-data/fonts/afm/putbi8a.afm
p1387
aV/Users/zhaoyu/soft/anaconda2/envs/uvcdat_nightly/lib/python2.7/site-packages/matplotlib/mpl-data/fonts/afm/pncb8a.afm
p1388
aV/Users/zhaoyu/soft/anaconda2/envs/uvcdat_nightly/lib/python2.7/site-packages/matplotlib/mpl-data/fonts/afm/putb8a.afm
p1389
aV/Users/zhaoyu/soft/anaconda2/envs/uvcdat_nightly/lib/python2.7/site-packages/matplotlib/mpl-data/fonts/afm/pzcmi8a.afm
p1390
aV/Users/zhaoyu/soft/anaconda2/envs/uvcdat_nightly/lib/python2.7/site-packages/matplotlib/mpl-data/fonts/pdfcorefonts/Helvetica-Oblique.afm
p1391
aV/Users/zhaoyu/soft/anaconda2/envs/uvcdat_nightly/lib/python2.7/site-packages/matplotlib/mpl-data/fonts/afm/phvbo8an.afm
p1392
aV/Users/zhaoyu/soft/anaconda2/envs/uvcdat_nightly/lib/python2.7/site-packages/matplotlib/mpl-data/fonts/afm/pplr8a.afm
p1393
aV/Users/zhaoyu/soft/anaconda2/envs/uvcdat_nightly/lib/python2.7/site-packages/matplotlib/mpl-data/fonts/pdfcorefonts/Symbol.afm
p1394
aV/Users/zhaoyu/soft/anaconda2/envs/uvcdat_nightly/lib/python2.7/site-packages/matplotlib/mpl-data/fonts/afm/pzdr.afm
p1395
aV/Users/zhaoyu/soft/anaconda2/envs/uvcdat_nightly/lib/python2.7/site-packages/matplotlib/mpl-data/fonts/afm/cmsy10.afm
p1396
aV/Users/zhaoyu/soft/anaconda2/envs/uvcdat_nightly/lib/python2.7/site-packages/matplotlib/mpl-data/fonts/afm/cmmi10.afm
p1397
aV/Users/zhaoyu/soft/anaconda2/envs/uvcdat_nightly/lib/python2.7/site-packages/matplotlib/mpl-data/fonts/pdfcorefonts/Courier-Bold.afm
p1398
aV/Users/zhaoyu/soft/anaconda2/envs/uvcdat_nightly/lib/python2.7/site-packages/matplotlib/mpl-data/fonts/afm/putr8a.afm
p1399
aV/usr/X11/lib/X11/fonts/Type1/UTB_____.afm
p1400
aV/usr/X11/lib/X11/fonts/Type1/c0583bt_.afm
p1401
aV/usr/X11/lib/X11/fonts/Type1/l049036t.afm
p1402
aV/usr/X11/lib/X11/fonts/Type1/c0649bt_.afm
p1403
aV/usr/X11/lib/X11/fonts/Type1/UTRG____.afm
p1404
aV/usr/X11/lib/X11/fonts/Type1/c0582bt_.afm
p1405
aV/usr/X11/lib/X11/fonts/Type1/c0648bt_.afm
p1406
aV/usr/X11/lib/X11/fonts/Type1/c0633bt_.afm
p1407
aV/usr/X11/lib/X11/fonts/Type1/l048013t.afm
p1408
aV/usr/X11/lib/X11/fonts/Type1/courb.afm
p1409
aV/usr/X11/lib/X11/fonts/Type1/c0419bt_.afm
p1410
aV/usr/X11/lib/X11/fonts/Type1/UTI_____.afm
p1411
aV/usr/X11/lib/X11/fonts/Type1/l049016t.afm
p1412
aV/usr/X11/lib/X11/fonts/Type1/l048033t.afm
p1413
aV/usr/X11/lib/X11/fonts/Type1/l048016t.afm
p1414
aV/usr/X11/lib/X11/fonts/Type1/l048036t.afm
p1415
aV/usr/X11/lib/X11/fonts/Type1/courbi.afm
p1416
aV/usr/X11/lib/X11/fonts/Type1/c0632bt_.afm
p1417
aV/usr/X11/lib/X11/fonts/Type1/l049013t.afm
p1418
aV/usr/X11/lib/X11/fonts/Type1/c0611bt_.afm
p1419
aV/usr/X11/lib/X11/fonts/Type1/l047036t.afm
p1420
aV/usr/X11/lib/X11/fonts/Type1/l047016t.afm
p1421
aV/usr/X11/lib/X11/fonts/Type1/l047033t.afm
p1422
aV/usr/X11/lib/X11/fonts/Type1/l047013t.afm
p1423
aV/usr/X11/lib/X11/fonts/Type1/l049033t.afm
p1424
aV/usr/X11/lib/X11/fonts/Type1/UTBI____.afm
p1425
aV/usr/X11/lib/X11/fonts/Type1/cour.afm
p1426
aV/usr/X11/lib/X11/fonts/Type1/couri.afm
p1427
asS'afmlist'
p1428
(lp1429
g1
(g8
g3
NtRp1430
(dp1431
g11
Vitalic
p1432
sg13
S'Helvetica'
p1433
sg15
I200
sg16
Vnormal
p1434
sg18
g1434
sg19
g1338
sg21
Vscalable
p1435
sbag1
(g8
g3
NtRp1436
(dp1437
g11
g1434
sg13
S'Courier'
p1438
sg15
I500
sg16
g1434
sg18
g1434
sg19
g1341
sg21
g1435
sbag1
(g8
g3
NtRp1439
(dp1440
g11
g1434
sg13
S'ITC Avant Garde Gothic'
p1441
sg15
I600
sg16
g1434
sg18
g1434
sg19
g1342
sg21
g1435
sbag1
(g8
g3
NtRp1442
(dp1443
g11
g1432
sg13
S'ITC Bookman'
p1444
sg15
I600
sg16
g1434
sg18
g1434
sg19
g1343
sg21
g1435
sbag1
(g8
g3
NtRp1445
(dp1446
g11
g1432
sg13
S'ITC Avant Garde Gothic'
p1447
sg15
I600
sg16
g1434
sg18
g1434
sg19
g1344
sg21
g1435
sbag1
(g8
g3
NtRp1448
(dp1449
g11
g1432
sg13
S'New Century Schoolbook'
p1450
sg15
I700
sg16
g1434
sg18
g1434
sg19
g1345
sg21
g1435
sbag1
(g8
g3
NtRp1451
(dp1452
g11
g1434
sg13
S'Helvetica'
p1453
sg15
I500
sg16
g1434
sg18
g1434
sg19
g1346
sg21
g1435
sbag1
(g8
g3
NtRp1454
(dp1455
g11
g1432
sg13
S'Utopia'
p1456
sg15
I400
sg16
g1434
sg18
g1434
sg19
g1347
sg21
g1435
sbag1
(g8
g3
NtRp1457
(dp1458
g11
g1432
sg13
S'Courier'
p1459
sg15
I700
sg16
g1434
sg18
g1434
sg19
g1348
sg21
g1435
sbag1
(g8
g3
NtRp1460
(dp1461
g11
g1432
sg13
S'ITC Avant Garde Gothic'
p1462
sg15
I400
sg16
g1434
sg18
g1434
sg19
g1349
sg21
g1435
sbag1
(g8
g3
NtRp1463
(dp1464
g11
g1432
sg13
S'Palatino'
p1465
sg15
I500
sg16
g1434
sg18
g1434
sg19
g1350
sg21
g1435
sbag1
(g8
g3
NtRp1466
(dp1467
g11
g1434
sg13
S'ITC Bookman'
p1468
sg15
I200
sg16
g1434
sg18
g1434
sg19
g1351
sg21
g1435
sbag1
(g8
g3
NtRp1469
(dp1470
g11
g1434
sg13
S'Palatino'
p1471
sg15
I700
sg16
g1434
sg18
g1434
sg19
g1352
sg21
g1435
sbag1
(g8
g3
NtRp1472
(dp1473
g11
g1434
sg13
S'Computer Modern'
p1474
sg15
I500
sg16
g1434
sg18
g1434
sg19
g1353
sg21
g1435
sbag1
(g8
g3
NtRp1475
(dp1476
g11
g1434
sg13
S'Times'
p1477
sg15
I700
sg16
g1434
sg18
g1434
sg19
g1354
sg21
g1435
sbag1
(g8
g3
NtRp1478
(dp1479
g11
g1434
sg13
S'Helvetica'
p1480
sg15
I700
sg16
g1434
sg18
g1434
sg19
g1355
sg21
g1435
sbag1
(g8
g3
NtRp1481
(dp1482
g11
g1432
sg13
S'Times'
p1483
sg15
I500
sg16
g1434
sg18
g1434
sg19
g1356
sg21
g1435
sbag1
(g8
g3
NtRp1484
(dp1485
g11
g1434
sg13
S'Symbol'
p1486
sg15
I500
sg16
g1434
sg18
g1434
sg19
g1357
sg21
g1435
sbag1
(g8
g3
NtRp1487
(dp1488
g11
g1434
sg13
S'Courier'
p1489
sg15
I700
sg16
g1434
sg18
g1434
sg19
g1358
sg21
g1435
sbag1
(g8
g3
NtRp1490
(dp1491
g11
g1432
sg13
S'Times'
p1492
sg15
I500
sg16
g1434
sg18
g1434
sg19
g1359
sg21
g1435
sbag1
(g8
g3
NtRp1493
(dp1494
g11
g1434
sg13
S'Helvetica'
p1495
sg15
I500
sg16
Vcondensed
p1496
sg18
g1434
sg19
g1360
sg21
g1435
sbag1
(g8
g3
NtRp1497
(dp1498
g11
g1432
sg13
S'ITC Bookman'
p1499
sg15
I200
sg16
g1434
sg18
g1434
sg19
g1361
sg21
g1435
sbag1
(g8
g3
NtRp1500
(dp1501
g11
g1432
sg13
S'Courier'
p1502
sg15
I500
sg16
g1434
sg18
g1434
sg19
g1362
sg21
g1435
sbag1
(g8
g3
NtRp1503
(dp1504
g11
g1434
sg13
S'ZapfDingbats'
p1505
sg15
I500
sg16
g1434
sg18
g1434
sg19
g1363
sg21
g1435
sbag1
(g8
g3
NtRp1506
(dp1507
g11
g1434
sg13
S'New Century Schoolbook'
p1508
sg15
I500
sg16
g1434
sg18
g1434
sg19
g1364
sg21
g1435
sbag1
(g8
g3
NtRp1509
(dp1510
g11
g1434
sg13
S'Times'
p1511
sg15
I500
sg16
g1434
sg18
g1434
sg19
g1365
sg21
g1435
sbag1
(g8
g3
NtRp1512
(dp1513
g11
g1434
sg13
S'Helvetica'
p1514
sg15
I200
sg16
g1434
sg18
g1434
sg19
g1366
sg21
g1435
sbag1
(g8
g3
NtRp1515
(dp1516
g11
g1434
sg13
S'Helvetica'
p1517
sg15
I500
sg16
g1434
sg18
g1434
sg19
g1367
sg21
g1435
sbag1
(g8
g3
NtRp1518
(dp1519
g11
g1432
sg13
S'New Century Schoolbook'
p1520
sg15
I500
sg16
g1434
sg18
g1434
sg19
g1368
sg21
g1435
sbag1
(g8
g3
NtRp1521
(dp1522
g11
g1432
sg13
S'Courier'
p1523
sg15
I700
sg16
g1434
sg18
g1434
sg19
g1369
sg21
g1435
sbag1
(g8
g3
NtRp1524
(dp1525
g11
g1432
sg13
S'Palatino'
p1526
sg15
I700
sg16
g1434
sg18
g1434
sg19
g1370
sg21
g1435
sbag1
(g8
g3
NtRp1527
(dp1528
g11
g1432
sg13
S'Helvetica'
p1529
sg15
I500
sg16
g1496
sg18
g1434
sg19
g1371
sg21
g1435
sbag1
(g8
g3
NtRp1530
(dp1531
g11
g1434
sg13
S'Times'
p1532
sg15
I700
sg16
g1434
sg18
g1434
sg19
g1372
sg21
g1435
sbag1
(g8
g3
NtRp1533
(dp1534
g11
g1432
sg13
S'Courier'
p1535
sg15
I500
sg16
g1434
sg18
g1434
sg19
g1373
sg21
g1435
sbag1
(g8
g3
NtRp1536
(dp1537
g11
g1434
sg13
S'Times'
p1538
sg15
I500
sg16
g1434
sg18
g1434
sg19
g1374
sg21
g1435
sbag1
(g8
g3
NtRp1539
(dp1540
g11
g1432
sg13
S'Helvetica'
p1541
sg15
I700
sg16
g1434
sg18
g1434
sg19
g1375
sg21
g1435
sbag1
(g8
g3
NtRp1542
(dp1543
g11
g1434
sg13
S'ITC Bookman'
p1544
sg15
I600
sg16
g1434
sg18
g1434
sg19
g1376
sg21
g1435
sbag1
(g8
g3
NtRp1545
(dp1546
g11
g1432
sg13
S'Helvetica'
p1547
sg15
I700
sg16
g1434
sg18
g1434
sg19
g1377
sg21
g1435
sbag1
(g8
g3
NtRp1548
(dp1549
g11
g1434
sg13
S'Helvetica'
p1550
sg15
I700
sg16
g1496
sg18
g1434
sg19
g1378
sg21
g1435
sbag1
(g8
g3
NtRp1551
(dp1552
g11
g1434
sg13
S'Helvetica'
p1553
sg15
I700
sg16
g1434
sg18
g1434
sg19
g1379
sg21
g1435
sbag1
(g8
g3
NtRp1554
(dp1555
g11
g1432
sg13
S'Times'
p1556
sg15
I700
sg16
g1434
sg18
g1434
sg19
g1380
sg21
g1435
sbag1
(g8
g3
NtRp1557
(dp1558
g11
g1434
sg13
S'Computer Modern'
p1559
sg15
I500
sg16
g1434
sg18
g1434
sg19
g1381
sg21
g1435
sbag1
(g8
g3
NtRp1560
(dp1561
g11
g1434
sg13
S'Courier'
p1562
sg15
I500
sg16
g1434
sg18
g1434
sg19
g1382
sg21
g1435
sbag1
(g8
g3
NtRp1563
(dp1564
g11
g1434
sg13
S'ITC Avant Garde Gothic'
p1565
sg15
I400
sg16
g1434
sg18
g1434
sg19
g1383
sg21
g1435
sbag1
(g8
g3
NtRp1566
(dp1567
g11
g1432
sg13
S'Times'
p1568
sg15
I700
sg16
g1434
sg18
g1434
sg19
g1384
sg21
g1435
sbag1
(g8
g3
NtRp1569
(dp1570
g11
g1434
sg13
S'Computer Modern'
p1571
sg15
I500
sg16
g1434
sg18
g1434
sg19
g1385
sg21
g1435
sbag1
(g8
g3
NtRp1572
(dp1573
g11
g1432
sg13
S'Helvetica'
p1574
sg15
I500
sg16
g1434
sg18
g1434
sg19
g1386
sg21
g1435
sbag1
(g8
g3
NtRp1575
(dp1576
g11
g1432
sg13
S'Utopia'
p1577
sg15
I700
sg16
g1434
sg18
g1434
sg19
g1387
sg21
g1435
sbag1
(g8
g3
NtRp1578
(dp1579
g11
g1434
sg13
S'New Century Schoolbook'
p1580
sg15
I700
sg16
g1434
sg18
g1434
sg19
g1388
sg21
g1435
sbag1
(g8
g3
NtRp1581
(dp1582
g11
g1434
sg13
S'Utopia'
p1583
sg15
I700
sg16
g1434
sg18
g1434
sg19
g1389
sg21
g1435
sbag1
(g8
g3
NtRp1584
(dp1585
g11
g1432
sg13
S'ITC Zapf Chancery'
p1586
sg15
I500
sg16
g1434
sg18
g1434
sg19
g1390
sg21
g1435
sbag1
(g8
g3
NtRp1587
(dp1588
g11
g1432
sg13
S'Helvetica'
p1589
sg15
I500
sg16
g1434
sg18
g1434
sg19
g1391
sg21
g1435
sbag1
(g8
g3
NtRp1590
(dp1591
g11
g1432
sg13
S'Helvetica'
p1592
sg15
I700
sg16
g1496
sg18
g1434
sg19
g1392
sg21
g1435
sbag1
(g8
g3
NtRp1593
(dp1594
g11
g1434
sg13
S'Palatino'
p1595
sg15
I500
sg16
g1434
sg18
g1434
sg19
g1393
sg21
g1435
sbag1
(g8
g3
NtRp1596
(dp1597
g11
g1434
sg13
S'Symbol'
p1598
sg15
I500
sg16
g1434
sg18
g1434
sg19
g1394
sg21
g1435
sbag1
(g8
g3
NtRp1599
(dp1600
g11
g1434
sg13
S'ITC Zapf Dingbats'
p1601
sg15
I500
sg16
g1434
sg18
g1434
sg19
g1395
sg21
g1435
sbag1
(g8
g3
NtRp1602
(dp1603
g11
g1432
sg13
S'Computer Modern'
p1604
sg15
I500
sg16
g1434
sg18
g1434
sg19
g1396
sg21
g1435
sbag1
(g8
g3
NtRp1605
(dp1606
g11
g1432
sg13
S'Computer Modern'
p1607
sg15
I500
sg16
g1434
sg18
g1434
sg19
g1397
sg21
g1435
sbag1
(g8
g3
NtRp1608
(dp1609
g11
g1434
sg13
S'Courier'
p1610
sg15
I700
sg16
g1434
sg18
g1434
sg19
g1398
sg21
g1435
sbag1
(g8
g3
NtRp1611
(dp1612
g11
g1434
sg13
S'Utopia'
p1613
sg15
I400
sg16
g1434
sg18
g1434
sg19
g1399
sg21
g1435
sbag1
(g8
g3
NtRp1614
(dp1615
g11
g1434
sg13
S'Utopia'
p1616
sg15
I700
sg16
g1434
sg18
g1434
sg19
g1400
sg21
g1435
sbag1
(g8
g3
NtRp1617
(dp1618
g11
g1434
sg13
S'Courier 10 Pitch'
p1619
sg15
I700
sg16
g1434
sg18
g1434
sg19
g1401
sg21
g1435
sbag1
(g8
g3
NtRp1620
(dp1621
g11
g1432
sg13
S'Luxi Serif'
p1622
sg15
I700
sg16
g1434
sg18
g1434
sg19
g1402
sg21
g1435
sbag1
(g8
g3
NtRp1623
(dp1624
g11
g1432
sg13
S'Bitstream Charter'
p1625
sg15
I400
sg16
g1434
sg18
g1434
sg19
g1403
sg21
g1435
sbag1
(g8
g3
NtRp1626
(dp1627
g11
g1434
sg13
S'Utopia'
p1628
sg15
I400
sg16
g1434
sg18
g1434
sg19
g1404
sg21
g1435
sbag1
(g8
g3
NtRp1629
(dp1630
g11
g1432
sg13
S'Courier 10 Pitch'
p1631
sg15
I400
sg16
g1434
sg18
g1434
sg19
g1405
sg21
g1435
sbag1
(g8
g3
NtRp1632
(dp1633
g11
g1434
sg13
S'Bitstream Charter'
p1634
sg15
I400
sg16
g1434
sg18
g1434
sg19
g1406
sg21
g1435
sbag1
(g8
g3
NtRp1635
(dp1636
g11
g1432
sg13
S'Bitstream Charter'
p1637
sg15
I700
sg16
g1434
sg18
g1434
sg19
g1407
sg21
g1435
sbag1
(g8
g3
NtRp1638
(dp1639
g11
g1434
sg13
S'Luxi Sans'
p1640
sg15
I400
sg16
g1434
sg18
g1434
sg19
g1408
sg21
g1435
sbag1
(g8
g3
NtRp1641
(dp1642
g11
g1434
sg13
S'Courier'
p1643
sg15
I700
sg16
g1434
sg18
g1434
sg19
g1409
sg21
g1435
sbag1
(g8
g3
NtRp1644
(dp1645
g11
g1434
sg13
S'Courier 10 Pitch'
p1646
sg15
I400
sg16
g1434
sg18
g1434
sg19
g1410
sg21
g1435
sbag1
(g8
g3
NtRp1647
(dp1648
g11
g1432
sg13
S'Utopia'
p1649
sg15
I400
sg16
g1434
sg18
g1434
sg19
g1411
sg21
g1435
sbag1
(g8
g3
NtRp1650
(dp1651
g11
g1434
sg13
S'Luxi Serif'
p1652
sg15
I700
sg16
g1434
sg18
g1434
sg19
g1412
sg21
g1435
sbag1
(g8
g3
NtRp1653
(dp1654
g11
g1432
sg13
S'Luxi Sans'
p1655
sg15
I400
sg16
g1434
sg18
g1434
sg19
g1413
sg21
g1435
sbag1
(g8
g3
NtRp1656
(dp1657
g11
g1434
sg13
S'Luxi Sans'
p1658
sg15
I700
sg16
g1434
sg18
g1434
sg19
g1414
sg21
g1435
sbag1
(g8
g3
NtRp1659
(dp1660
g11
g1432
sg13
S'Luxi Sans'
p1661
sg15
I700
sg16
g1434
sg18
g1434
sg19
g1415
sg21
g1435
sbag1
(g8
g3
NtRp1662
(dp1663
g11
g1432
sg13
S'Courier'
p1664
sg15
I700
sg16
g1434
sg18
g1434
sg19
g1416
sg21
g1435
sbag1
(g8
g3
NtRp1665
(dp1666
g11
g1434
sg13
S'Bitstream Charter'
p1667
sg15
I700
sg16
g1434
sg18
g1434
sg19
g1417
sg21
g1435
sbag1
(g8
g3
NtRp1668
(dp1669
g11
g1434
sg13
S'Luxi Serif'
p1670
sg15
I400
sg16
g1434
sg18
g1434
sg19
g1418
sg21
g1435
sbag1
(g8
g3
NtRp1671
(dp1672
g11
g1432
sg13
S'Courier 10 Pitch'
p1673
sg15
I700
sg16
g1434
sg18
g1434
sg19
g1419
sg21
g1435
sbag1
(g8
g3
NtRp1674
(dp1675
g11
g1432
sg13
S'Luxi Mono'
p1676
sg15
I700
sg16
g1434
sg18
g1434
sg19
g1420
sg21
g1435
sbag1
(g8
g3
NtRp1677
(dp1678
g11
g1434
sg13
S'Luxi Mono'
p1679
sg15
I700
sg16
g1434
sg18
g1434
sg19
g1421
sg21
g1435
sbag1
(g8
g3
NtRp1680
(dp1681
g11
g1432
sg13
S'Luxi Mono'
p1682
sg15
I400
sg16
g1434
sg18
g1434
sg19
g1422
sg21
g1435
sbag1
(g8
g3
NtRp1683
(dp1684
g11
g1434
sg13
S'Luxi Mono'
p1685
sg15
I400
sg16
g1434
sg18
g1434
sg19
g1423
sg21
g1435
sbag1
(g8
g3
NtRp1686
(dp1687
g11
g1432
sg13
S'Luxi Serif'
p1688
sg15
I400
sg16
g1434
sg18
g1434
sg19
g1424
sg21
g1435
sbag1
(g8
g3
NtRp1689
(dp1690
g11
g1432
sg13
S'Utopia'
p1691
sg15
I700
sg16
g1434
sg18
g1434
sg19
g1425
sg21
g1435
sbag1
(g8
g3
NtRp1692
(dp1693
g11
g1434
sg13
S'Courier'
p1694
sg15
I400
sg16
g1434
sg18
g1434
sg19
g1426
sg21
g1435
sbag1
(g8
g3
NtRp1695
(dp1696
g11
g1432
sg13
S'Courier'
p1697
sg15
I400
sg16
g1434
sg18
g1434
sg19
g1427
sg21
g1435
sbasb.