ccopy_reg
_reconstructor
p1
(cmatplotlib.font_manager
FontManager
p2
c__builtin__
object
p3
NtRp4
(dp5
S'ttflist'
p6
(lp7
g1
(cmatplotlib.font_manager
FontEntry
p8
g3
NtRp9
(dp10
S'style'
p11
Voblique
p12
sS'name'
p13
VBitstream Vera Sans Mono
p14
sS'weight'
p15
I400
sS'stretch'
p16
Vnormal
p17
sS'variant'
p18
g17
sS'fname'
p19
V/Applications/vapor.app/Contents/lib/python2.7/site-packages/matplotlib/mpl-data/fonts/ttf/VeraMoIt.ttf
p20
sS'size'
p21
Vscalable
p22
sbag1
(g8
g3
NtRp23
(dp24
g11
g17
sg13
VSTIXSizeFourSym
p25
sg15
I400
sg16
g17
sg18
g17
sg19
V/Applications/vapor.app/Contents/lib/python2.7/site-packages/matplotlib/mpl-data/fonts/ttf/STIXSizFourSymReg.ttf
p26
sg21
g22
sbag1
(g8
g3
NtRp27
(dp28
g11
g17
sg13
VBitstream Vera Sans Mono
p29
sg15
I700
sg16
g17
sg18
g17
sg19
V/Applications/vapor.app/Contents/lib/python2.7/site-packages/matplotlib/mpl-data/fonts/ttf/VeraMoBd.ttf
p30
sg21
g22
sbag1
(g8
g3
NtRp31
(dp32
g11
g17
sg13
Vcmss10
p33
sg15
I400
sg16
g17
sg18
g17
sg19
V/Applications/vapor.app/Contents/lib/python2.7/site-packages/matplotlib/mpl-data/fonts/ttf/cmss10.ttf
p34
sg21
g22
sbag1
(g8
g3
NtRp35
(dp36
g11
g12
sg13
VBitstream Vera Sans
p37
sg15
I700
sg16
g17
sg18
g17
sg19
V/Applications/vapor.app/Contents/lib/python2.7/site-packages/matplotlib/mpl-data/fonts/ttf/VeraBI.ttf
p38
sg21
g22
sbag1
(g8
g3
NtRp39
(dp40
g11
g17
sg13
VSTIXSizeThreeSym
p41
sg15
I400
sg16
g17
sg18
g17
sg19
V/Applications/vapor.app/Contents/lib/python2.7/site-packages/matplotlib/mpl-data/fonts/ttf/STIXSizThreeSymReg.ttf
p42
sg21
g22
sbag1
(g8
g3
NtRp43
(dp44
g11
g17
sg13
VSTIXNonUnicode
p45
sg15
I400
sg16
g17
sg18
g17
sg19
V/Applications/vapor.app/Contents/lib/python2.7/site-packages/matplotlib/mpl-data/fonts/ttf/STIXNonUni.ttf
p46
sg21
g22
sbag1
(g8
g3
NtRp47
(dp48
g11
g17
sg13
Vcmmi10
p49
sg15
I400
sg16
g17
sg18
g17
sg19
V/Applications/vapor.app/Contents/lib/python2.7/site-packages/matplotlib/mpl-data/fonts/ttf/cmmi10.ttf
p50
sg21
g22
sbag1
(g8
g3
NtRp51
(dp52
g11
g17
sg13
VSTIXSizeFiveSym
p53
sg15
I400
sg16
g17
sg18
g17
sg19
V/Applications/vapor.app/Contents/lib/python2.7/site-packages/matplotlib/mpl-data/fonts/ttf/STIXSizFiveSymReg.ttf
p54
sg21
g22
sbag1
(g8
g3
NtRp55
(dp56
g11
g17
sg13
VSTIXGeneral
p57
sg15
I400
sg16
g17
sg18
g17
sg19
V/Applications/vapor.app/Contents/lib/python2.7/site-packages/matplotlib/mpl-data/fonts/ttf/STIXGeneral.ttf
p58
sg21
g22
sbag1
(g8
g3
NtRp59
(dp60
g11
g17
sg13
Vcmb10
p61
sg15
I400
sg16
g17
sg18
g17
sg19
V/Applications/vapor.app/Contents/lib/python2.7/site-packages/matplotlib/mpl-data/fonts/ttf/cmb10.ttf
p62
sg21
g22
sbag1
(g8
g3
NtRp63
(dp64
g11
g17
sg13
VSTIXSizeThreeSym
p65
sg15
I700
sg16
g17
sg18
g17
sg19
V/Applications/vapor.app/Contents/lib/python2.7/site-packages/matplotlib/mpl-data/fonts/ttf/STIXSizThreeSymBol.ttf
p66
sg21
g22
sbag1
(g8
g3
NtRp67
(dp68
g11
g17
sg13
VBitstream Vera Serif
p69
sg15
I700
sg16
g17
sg18
g17
sg19
V/Applications/vapor.app/Contents/lib/python2.7/site-packages/matplotlib/mpl-data/fonts/ttf/VeraSeBd.ttf
p70
sg21
g22
sbag1
(g8
g3
NtRp71
(dp72
g11
g17
sg13
VSTIXSizeTwoSym
p73
sg15
I400
sg16
g17
sg18
g17
sg19
V/Applications/vapor.app/Contents/lib/python2.7/site-packages/matplotlib/mpl-data/fonts/ttf/STIXSizTwoSymReg.ttf
p74
sg21
g22
sbag1
(g8
g3
NtRp75
(dp76
g11
g17
sg13
VSTIXSizeFourSym
p77
sg15
I700
sg16
g17
sg18
g17
sg19
V/Applications/vapor.app/Contents/lib/python2.7/site-packages/matplotlib/mpl-data/fonts/ttf/STIXSizFourSymBol.ttf
p78
sg21
g22
sbag1
(g8
g3
NtRp79
(dp80
g11
g17
sg13
VBitstream Vera Sans
p81
sg15
I700
sg16
g17
sg18
g17
sg19
V/Applications/vapor.app/Contents/lib/python2.7/site-packages/matplotlib/mpl-data/fonts/ttf/VeraBd.ttf
p82
sg21
g22
sbag1
(g8
g3
NtRp83
(dp84
g11
g17
sg13
VSTIXGeneral
p85
sg15
I700
sg16
g17
sg18
g17
sg19
V/Applications/vapor.app/Contents/lib/python2.7/site-packages/matplotlib/mpl-data/fonts/ttf/STIXGeneralBol.ttf
p86
sg21
g22
sbag1
(g8
g3
NtRp87
(dp88
g11
Vitalic
p89
sg13
VSTIXNonUnicode
p90
sg15
I700
sg16
g17
sg18
g17
sg19
V/Applications/vapor.app/Contents/lib/python2.7/site-packages/matplotlib/mpl-data/fonts/ttf/STIXNonUniBolIta.ttf
p91
sg21
g22
sbag1
(g8
g3
NtRp92
(dp93
g11
g89
sg13
VSTIXGeneral
p94
sg15
I400
sg16
g17
sg18
g17
sg19
V/Applications/vapor.app/Contents/lib/python2.7/site-packages/matplotlib/mpl-data/fonts/ttf/STIXGeneralItalic.ttf
p95
sg21
g22
sbag1
(g8
g3
NtRp96
(dp97
g11
g17
sg13
VBitstream Vera Serif
p98
sg15
I400
sg16
g17
sg18
g17
sg19
V/Applications/vapor.app/Contents/lib/python2.7/site-packages/matplotlib/mpl-data/fonts/ttf/VeraSe.ttf
p99
sg21
g22
sbag1
(g8
g3
NtRp100
(dp101
g11
g17
sg13
VSTIXSizeOneSym
p102
sg15
I400
sg16
g17
sg18
g17
sg19
V/Applications/vapor.app/Contents/lib/python2.7/site-packages/matplotlib/mpl-data/fonts/ttf/STIXSizOneSymReg.ttf
p103
sg21
g22
sbag1
(g8
g3
NtRp104
(dp105
g11
g17
sg13
VSTIXSizeTwoSym
p106
sg15
I700
sg16
g17
sg18
g17
sg19
V/Applications/vapor.app/Contents/lib/python2.7/site-packages/matplotlib/mpl-data/fonts/ttf/STIXSizTwoSymBol.ttf
p107
sg21
g22
sbag1
(g8
g3
NtRp108
(dp109
g11
g89
sg13
VSTIXNonUnicode
p110
sg15
I400
sg16
g17
sg18
g17
sg19
V/Applications/vapor.app/Contents/lib/python2.7/site-packages/matplotlib/mpl-data/fonts/ttf/STIXNonUniIta.ttf
p111
sg21
g22
sbag1
(g8
g3
NtRp112
(dp113
g11
g17
sg13
Vcmtt10
p114
sg15
I400
sg16
g17
sg18
g17
sg19
V/Applications/vapor.app/Contents/lib/python2.7/site-packages/matplotlib/mpl-data/fonts/ttf/cmtt10.ttf
p115
sg21
g22
sbag1
(g8
g3
NtRp116
(dp117
g11
g17
sg13
VSTIXSizeOneSym
p118
sg15
I700
sg16
g17
sg18
g17
sg19
V/Applications/vapor.app/Contents/lib/python2.7/site-packages/matplotlib/mpl-data/fonts/ttf/STIXSizOneSymBol.ttf
p119
sg21
g22
sbag1
(g8
g3
NtRp120
(dp121
g11
g17
sg13
VBitstream Vera Sans
p122
sg15
I400
sg16
g17
sg18
g17
sg19
V/Applications/vapor.app/Contents/lib/python2.7/site-packages/matplotlib/mpl-data/fonts/ttf/Vera.ttf
p123
sg21
g22
sbag1
(g8
g3
NtRp124
(dp125
g11
g17
sg13
Vcmr10
p126
sg15
I400
sg16
g17
sg18
g17
sg19
V/Applications/vapor.app/Contents/lib/python2.7/site-packages/matplotlib/mpl-data/fonts/ttf/cmr10.ttf
p127
sg21
g22
sbag1
(g8
g3
NtRp128
(dp129
g11
g17
sg13
Vcmsy10
p130
sg15
I400
sg16
g17
sg18
g17
sg19
V/Applications/vapor.app/Contents/lib/python2.7/site-packages/matplotlib/mpl-data/fonts/ttf/cmsy10.ttf
p131
sg21
g22
sbag1
(g8
g3
NtRp132
(dp133
g11
g12
sg13
VBitstream Vera Sans Mono
p134
sg15
I700
sg16
g17
sg18
g17
sg19
V/Applications/vapor.app/Contents/lib/python2.7/site-packages/matplotlib/mpl-data/fonts/ttf/VeraMoBI.ttf
p135
sg21
g22
sbag1
(g8
g3
NtRp136
(dp137
g11
g17
sg13
VSTIXNonUnicode
p138
sg15
I700
sg16
g17
sg18
g17
sg19
V/Applications/vapor.app/Contents/lib/python2.7/site-packages/matplotlib/mpl-data/fonts/ttf/STIXNonUniBol.ttf
p139
sg21
g22
sbag1
(g8
g3
NtRp140
(dp141
g11
g12
sg13
VBitstream Vera Sans
p142
sg15
I400
sg16
g17
sg18
g17
sg19
V/Applications/vapor.app/Contents/lib/python2.7/site-packages/matplotlib/mpl-data/fonts/ttf/VeraIt.ttf
p143
sg21
g22
sbag1
(g8
g3
NtRp144
(dp145
g11
g17
sg13
Vcmex10
p146
sg15
I400
sg16
g17
sg18
g17
sg19
V/Applications/vapor.app/Contents/lib/python2.7/site-packages/matplotlib/mpl-data/fonts/ttf/cmex10.ttf
p147
sg21
g22
sbag1
(g8
g3
NtRp148
(dp149
g11
g17
sg13
VBitstream Vera Sans Mono
p150
sg15
I400
sg16
g17
sg18
g17
sg19
V/Applications/vapor.app/Contents/lib/python2.7/site-packages/matplotlib/mpl-data/fonts/ttf/VeraMono.ttf
p151
sg21
g22
sbag1
(g8
g3
NtRp152
(dp153
g11
g89
sg13
VSTIXGeneral
p154
sg15
I700
sg16
g17
sg18
g17
sg19
V/Applications/vapor.app/Contents/lib/python2.7/site-packages/matplotlib/mpl-data/fonts/ttf/STIXGeneralBolIta.ttf
p155
sg21
g22
sbag1
(g8
g3
NtRp156
(dp157
g11
g89
sg13
VTrebuchet MS
p158
sg15
I400
sg16
g17
sg18
g17
sg19
V/Library/Fonts/Trebuchet MS Italic.ttf
p159
sg21
g22
sbag1
(g8
g3
NtRp160
(dp161
g11
g17
sg13
VHoefler Text
p162
sg15
I400
sg16
g17
sg18
g17
sg19
V/Library/Fonts/Hoefler Text Ornaments.ttf
p163
sg21
g22
sbag1
(g8
g3
NtRp164
(dp165
g11
g17
sg13
VSystem Font
p166
sg15
I400
sg16
g17
sg18
g17
sg19
V/System/Library/Fonts/SFNSText-HeavyItalic.otf
p167
sg21
g22
sbag1
(g8
g3
NtRp168
(dp169
g11
g17
sg13
VTimes New Roman
p170
sg15
I500
sg16
g17
sg18
g17
sg19
V/Library/Fonts/Times New Roman.ttf
p171
sg21
g22
sbag1
(g8
g3
NtRp172
(dp173
g11
g12
sg13
VLuxi Sans
p174
sg15
I400
sg16
g17
sg18
g17
sg19
V/usr/X11/lib/X11/fonts/TTF/luxisri.ttf
p175
sg21
g22
sbag1
(g8
g3
NtRp176
(dp177
g11
g17
sg13
VOsaka
p178
sg15
I400
sg16
g17
sg18
g17
sg19
V/Library/Fonts/Osaka.ttf
p179
sg21
g22
sbag1
(g8
g3
NtRp180
(dp181
g11
g12
sg13
VLuxi Mono
p182
sg15
I400
sg16
g17
sg18
g17
sg19
V/usr/X11/lib/X11/fonts/TTF/luximri.ttf
p183
sg21
g22
sbag1
(g8
g3
NtRp184
(dp185
g11
g17
sg13
VSource Code Pro
p186
sg15
I700
sg16
g17
sg18
g17
sg19
V/Users/zhaoyu/Library/Fonts/SourceCodePro-Bold.ttf
p187
sg21
g22
sbag1
(g8
g3
NtRp188
(dp189
g11
g17
sg13
VFira Mono for Powerline
p190
sg15
I400
sg16
g17
sg18
g17
sg19
V/Users/zhaoyu/Library/Fonts/FuraMono-Regular Powerline.otf
p191
sg21
g22
sbag1
(g8
g3
NtRp192
(dp193
g11
g17
sg13
VVerdana
p194
sg15
I700
sg16
g17
sg18
g17
sg19
V/Library/Fonts/Verdana Bold.ttf
p195
sg21
g22
sbag1
(g8
g3
NtRp196
(dp197
g11
g17
sg13
VSystem Font
p198
sg15
I400
sg16
g17
sg18
g17
sg19
V/System/Library/Fonts/SFNSDisplay-Bold.otf
p199
sg21
g22
sbag1
(g8
g3
NtRp200
(dp201
g11
g17
sg13
VArial Unicode MS
p202
sg15
I400
sg16
g17
sg18
g17
sg19
V/Library/Fonts/Arial Unicode.ttf
p203
sg21
g22
sbag1
(g8
g3
NtRp204
(dp205
g11
g17
sg13
VSTIXSizeThreeSym
p206
sg15
I400
sg16
g17
sg18
g17
sg19
V/Library/Fonts/STIXSizThreeSymReg.otf
p207
sg21
g22
sbag1
(g8
g3
NtRp208
(dp209
g11
g17
sg13
VTinos for Powerline
p210
sg15
I700
sg16
g17
sg18
g17
sg19
V/Users/zhaoyu/Library/Fonts/Tinos Bold for Powerline.ttf
p211
sg21
g22
sbag1
(g8
g3
NtRp212
(dp213
g11
g17
sg13
VDIN Condensed
p214
sg15
I700
sg16
Vcondensed
p215
sg18
g17
sg19
V/Library/Fonts/DIN Condensed Bold.ttf
p216
sg21
g22
sbag1
(g8
g3
NtRp217
(dp218
g11
g12
sg13
VDejaVu Sans Mono for Powerline
p219
sg15
I700
sg16
g17
sg18
g17
sg19
V/Users/zhaoyu/Library/Fonts/DejaVu Sans Mono Bold Oblique for Powerline.ttf
p220
sg21
g22
sbag1
(g8
g3
NtRp221
(dp222
g11
g89
sg13
VLiberation Mono for Powerline
p223
sg15
I700
sg16
g17
sg18
g17
sg19
V/Users/zhaoyu/Library/Fonts/Literation Mono Powerline Bold Italic.ttf
p224
sg21
g22
sbag1
(g8
g3
NtRp225
(dp226
g11
g17
sg13
VSource Code Pro for Powerline
p227
sg15
I400
sg16
g17
sg18
g17
sg19
V/Users/zhaoyu/Library/Fonts/Sauce Code Powerline Regular.otf
p228
sg21
g22
sbag1
(g8
g3
NtRp229
(dp230
g11
g17
sg13
VSerto Kharput
p231
sg15
I400
sg16
g17
sg18
g17
sg19
V/usr/X11/lib/X11/fonts/OTF/SyrCOMKharput.otf
p232
sg21
g22
sbag1
(g8
g3
NtRp233
(dp234
g11
g12
sg13
VDejaVu Sans Mono for Powerline
p235
sg15
I400
sg16
g17
sg18
g17
sg19
V/Users/zhaoyu/Library/Fonts/DejaVu Sans Mono Oblique for Powerline.ttf
p236
sg21
g22
sbag1
(g8
g3
NtRp237
(dp238
g11
g17
sg13
VTeamViewer13
p239
sg15
I400
sg16
g17
sg18
g17
sg19
V/Library/Fonts/TeamViewer13.otf
p240
sg21
g22
sbag1
(g8
g3
NtRp241
(dp242
g11
g17
sg13
VEstrangelo Nisibin
p243
sg15
I400
sg16
g17
sg18
g17
sg19
V/usr/X11/lib/X11/fonts/OTF/SyrCOMNisibin.otf
p244
sg21
g22
sbag1
(g8
g3
NtRp245
(dp246
g11
g17
sg13
VLiSong Pro
p247
sg15
I400
sg16
g17
sg18
g17
sg19
V/Library/Fonts/\u5137\u5b8b Pro.ttf
p248
sg21
g22
sbag1
(g8
g3
NtRp249
(dp250
g11
g17
sg13
VArial
p251
sg15
I400
sg16
g17
sg18
g17
sg19
V/Library/Fonts/Arial.ttf
p252
sg21
g22
sbag1
(g8
g3
NtRp253
(dp254
g11
g17
sg13
VSource Code Pro for Powerline
p255
sg15
I900
sg16
g17
sg18
g17
sg19
V/Users/zhaoyu/Library/Fonts/Sauce Code Powerline Black.otf
p256
sg21
g22
sbag1
(g8
g3
NtRp257
(dp258
g11
g17
sg13
VRoboto Mono Light for Powerline
p259
sg15
I200
sg16
g17
sg18
g17
sg19
V/Users/zhaoyu/Library/Fonts/Roboto Mono Light for Powerline.ttf
p260
sg21
g22
sbag1
(g8
g3
NtRp261
(dp262
g11
g17
sg13
VAppleGothic
p263
sg15
I400
sg16
g17
sg18
g17
sg19
V/Library/Fonts/AppleGothic.ttf
p264
sg21
g22
sbag1
(g8
g3
NtRp265
(dp266
g11
g17
sg13
VKaiTi
p267
sg15
I400
sg16
g17
sg18
g17
sg19
V/Users/zhaoyu/Library/Fonts/simkai.ttf
p268
sg21
g22
sbag1
(g8
g3
NtRp269
(dp270
g11
g17
sg13
VYuGothic
p271
sg15
I500
sg16
g17
sg18
g17
sg19
V/Library/Fonts/Yu Gothic Medium.otf
p272
sg21
g22
sbag1
(g8
g3
NtRp273
(dp274
g11
g17
sg13
VArial Narrow
p275
sg15
I400
sg16
g215
sg18
g17
sg19
V/Library/Fonts/Arial Narrow.ttf
p276
sg21
g22
sbag1
(g8
g3
NtRp277
(dp278
g11
g17
sg13
VSimSun-ExtB
p279
sg15
I400
sg16
g17
sg18
g17
sg19
V/Users/zhaoyu/Library/Fonts/simsunb.ttf
p280
sg21
g22
sbag1
(g8
g3
NtRp281
(dp282
g11
g17
sg13
VLuxi Mono
p283
sg15
I700
sg16
g17
sg18
g17
sg19
V/usr/X11/lib/X11/fonts/TTF/luximb.ttf
p284
sg21
g22
sbag1
(g8
g3
NtRp285
(dp286
g11
g12
sg13
VLuxi Serif
p287
sg15
I400
sg16
g17
sg18
g17
sg19
V/usr/X11R6/lib/X11/fonts/TTF/luxirri.ttf
p288
sg21
g22
sbag1
(g8
g3
NtRp289
(dp290
g11
g17
sg13
VFira Mono Medium for Powerline
p291
sg15
I500
sg16
g17
sg18
g17
sg19
V/Users/zhaoyu/Library/Fonts/FuraMono-Medium Powerline.otf
p292
sg21
g22
sbag1
(g8
g3
NtRp293
(dp294
g11
g17
sg13
VSystem Font
p295
sg15
I400
sg16
g17
sg18
g17
sg19
V/System/Library/Fonts/SFNSDisplay-Medium.otf
p296
sg21
g22
sbag1
(g8
g3
NtRp297
(dp298
g11
g17
sg13
VSerto Batnan
p299
sg15
I700
sg16
g17
sg18
g17
sg19
V/usr/X11/lib/X11/fonts/OTF/SyrCOMBatnanBold.otf
p300
sg21
g22
sbag1
(g8
g3
NtRp301
(dp302
g11
g17
sg13
VAppleMyungjo
p303
sg15
I400
sg16
g17
sg18
g17
sg19
V/Library/Fonts/AppleMyungjo.ttf
p304
sg21
g22
sbag1
(g8
g3
NtRp305
(dp306
g11
g89
sg13
VAnonymous Pro for Powerline
p307
sg15
I400
sg16
g17
sg18
g17
sg19
V/Users/zhaoyu/Library/Fonts/Anonymice Powerline Italic.ttf
p308
sg21
g22
sbag1
(g8
g3
NtRp309
(dp310
g11
g17
sg13
VSerto Mardin
p311
sg15
I700
sg16
g17
sg18
g17
sg19
V/usr/X11/lib/X11/fonts/OTF/SyrCOMMardinBold.otf
p312
sg21
g22
sbag1
(g8
g3
NtRp313
(dp314
g11
g17
sg13
VMishafi Gold
p315
sg15
I400
sg16
g17
sg18
g17
sg19
V/Library/Fonts/Mishafi Gold.ttf
p316
sg21
g22
sbag1
(g8
g3
NtRp317
(dp318
g11
g17
sg13
VSerto Jerusalem Outline
p319
sg15
I400
sg16
g17
sg18
g17
sg19
V/usr/X11/lib/X11/fonts/OTF/SyrCOMJerusalemOutline.otf
p320
sg21
g22
sbag1
(g8
g3
NtRp321
(dp322
g11
g17
sg13
VZapf Dingbats
p323
sg15
I400
sg16
g17
sg18
g17
sg19
V/System/Library/Fonts/ZapfDingbats.ttf
p324
sg21
g22
sbag1
(g8
g3
NtRp325
(dp326
g11
g17
sg13
VMeslo LG M DZ for Powerline
p327
sg15
I400
sg16
g17
sg18
g17
sg19
V/Users/zhaoyu/Library/Fonts/Meslo LG M DZ Regular for Powerline.otf
p328
sg21
g22
sbag1
(g8
g3
NtRp329
(dp330
g11
g17
sg13
VArimo for Powerline
p331
sg15
I400
sg16
g17
sg18
g17
sg19
V/Users/zhaoyu/Library/Fonts/Arimo for Powerline.ttf
p332
sg21
g22
sbag1
(g8
g3
NtRp333
(dp334
g11
g17
sg13
VSimHei
p335
sg15
I400
sg16
g17
sg18
g17
sg19
V/Users/zhaoyu/Library/Fonts/simhei.ttf
p336
sg21
g22
sbag1
(g8
g3
NtRp337
(dp338
g11
g17
sg13
VSTIXIntegralsD
p339
sg15
I700
sg16
g17
sg18
g17
sg19
V/Library/Fonts/STIXIntDBol.otf
p340
sg21
g22
sbag1
(g8
g3
NtRp341
(dp342
g11
g17
sg13
VHack
p343
sg15
I400
sg16
g17
sg18
g17
sg19
V/Users/zhaoyu/Library/Fonts/Hack-Regular.ttf
p344
sg21
g22
sbag1
(g8
g3
NtRp345
(dp346
g11
g17
sg13
VRoboto Mono Medium for Powerline
p347
sg15
I500
sg16
g17
sg18
g17
sg19
V/Users/zhaoyu/Library/Fonts/Roboto Mono Medium for Powerline.ttf
p348
sg21
g22
sbag1
(g8
g3
NtRp349
(dp350
g11
g17
sg13
VSystem Font
p351
sg15
I400
sg16
g17
sg18
g17
sg19
V/System/Library/Fonts/SFNSText-BoldItalicG2.otf
p352
sg21
g22
sbag1
(g8
g3
NtRp353
(dp354
g11
g17
sg13
VDIN Alternate
p355
sg15
I700
sg16
g17
sg18
g17
sg19
V/Library/Fonts/DIN Alternate Bold.ttf
p356
sg21
g22
sbag1
(g8
g3
NtRp357
(dp358
g11
g17
sg13
VDroid Sans Mono Slashed for Powerline
p359
sg15
I400
sg16
g17
sg18
g17
sg19
V/Users/zhaoyu/Library/Fonts/Droid Sans Mono Slashed for Powerline.ttf
p360
sg21
g22
sbag1
(g8
g3
NtRp361
(dp362
g11
g17
sg13
VSTIXSizeThreeSym
p363
sg15
I700
sg16
g17
sg18
g17
sg19
V/Library/Fonts/STIXSizThreeSymBol.otf
p364
sg21
g22
sbag1
(g8
g3
NtRp365
(dp366
g11
g17
sg13
VRoboto Mono Thin for Powerline
p367
sg15
I400
sg16
g17
sg18
g17
sg19
V/Users/zhaoyu/Library/Fonts/Roboto Mono Thin for Powerline.ttf
p368
sg21
g22
sbag1
(g8
g3
NtRp369
(dp370
g11
g12
sg13
VLuxi Serif
p371
sg15
I700
sg16
g17
sg18
g17
sg19
V/usr/X11R6/lib/X11/fonts/TTF/luxirbi.ttf
p372
sg21
g22
sbag1
(g8
g3
NtRp373
(dp374
g11
g17
sg13
VCourier New
p375
sg15
I400
sg16
g17
sg18
g17
sg19
V/Library/Fonts/Courier New.ttf
p376
sg21
g22
sbag1
(g8
g3
NtRp377
(dp378
g11
g89
sg13
VArial Narrow
p379
sg15
I700
sg16
g215
sg18
g17
sg19
V/Library/Fonts/Arial Narrow Bold Italic.ttf
p380
sg21
g22
sbag1
(g8
g3
NtRp381
(dp382
g11
g17
sg13
VRoboto Mono for Powerline
p383
sg15
I700
sg16
g17
sg18
g17
sg19
V/Users/zhaoyu/Library/Fonts/Roboto Mono Bold for Powerline.ttf
p384
sg21
g22
sbag1
(g8
g3
NtRp385
(dp386
g11
g17
sg13
VLuminari
p387
sg15
I400
sg16
g17
sg18
g17
sg19
V/Library/Fonts/Luminari.ttf
p388
sg21
g22
sbag1
(g8
g3
NtRp389
(dp390
g11
g17
sg13
VZapfino
p391
sg15
I400
sg16
g17
sg18
g17
sg19
V/Library/Fonts/Zapfino.ttf
p392
sg21
g22
sbag1
(g8
g3
NtRp393
(dp394
g11
g17
sg13
VArial Narrow
p395
sg15
I700
sg16
g215
sg18
g17
sg19
V/Library/Fonts/Arial Narrow Bold.ttf
p396
sg21
g22
sbag1
(g8
g3
NtRp397
(dp398
g11
g89
sg13
VTimes New Roman
p399
sg15
I500
sg16
g17
sg18
g17
sg19
V/Library/Fonts/Times New Roman Italic.ttf
p400
sg21
g22
sbag1
(g8
g3
NtRp401
(dp402
g11
g17
sg13
VKrungthep
p403
sg15
I400
sg16
g17
sg18
g17
sg19
V/Library/Fonts/Krungthep.ttf
p404
sg21
g22
sbag1
(g8
g3
NtRp405
(dp406
g11
g17
sg13
VSystem Font
p407
sg15
I400
sg16
g17
sg18
g17
sg19
V/System/Library/Fonts/SFNSText-RegularItalic.otf
p408
sg21
g22
sbag1
(g8
g3
NtRp409
(dp410
g11
g89
sg13
VArimo for Powerline
p411
sg15
I400
sg16
g17
sg18
g17
sg19
V/Users/zhaoyu/Library/Fonts/Arimo Italic for Powerline.ttf
p412
sg21
g22
sbag1
(g8
g3
NtRp413
(dp414
g11
g17
sg13
VCousine for Powerline
p415
sg15
I400
sg16
g17
sg18
g17
sg19
V/Users/zhaoyu/Library/Fonts/Cousine for Powerline.ttf
p416
sg21
g22
sbag1
(g8
g3
NtRp417
(dp418
g11
g17
sg13
VSystem Font
p419
sg15
I400
sg16
g17
sg18
g17
sg19
V/System/Library/Fonts/SFNSText-RegularG2.otf
p420
sg21
g22
sbag1
(g8
g3
NtRp421
(dp422
g11
g89
sg13
VTinos for Powerline
p423
sg15
I700
sg16
g17
sg18
g17
sg19
V/Users/zhaoyu/Library/Fonts/Tinos Bold Italic for Powerline.ttf
p424
sg21
g22
sbag1
(g8
g3
NtRp425
(dp426
g11
g17
sg13
VGeorgia
p427
sg15
I400
sg16
g17
sg18
g17
sg19
V/Library/Fonts/Georgia.ttf
p428
sg21
g22
sbag1
(g8
g3
NtRp429
(dp430
g11
g17
sg13
VSystem Font
p431
sg15
I400
sg16
g17
sg18
g17
sg19
V/System/Library/Fonts/SFNSText-Medium.otf
p432
sg21
g22
sbag1
(g8
g3
NtRp433
(dp434
g11
g17
sg13
VSTIXIntegralsSm
p435
sg15
I700
sg16
g17
sg18
g17
sg19
V/Library/Fonts/STIXIntSmBol.otf
p436
sg21
g22
sbag1
(g8
g3
NtRp437
(dp438
g11
g17
sg13
VDiwan Thuluth
p439
sg15
I400
sg16
g17
sg18
g17
sg19
V/Library/Fonts/Diwan Thuluth.ttf
p440
sg21
g22
sbag1
(g8
g3
NtRp441
(dp442
g11
g17
sg13
VTrebuchet MS
p443
sg15
I700
sg16
g17
sg18
g17
sg19
V/Library/Fonts/Trebuchet MS Bold.ttf
p444
sg21
g22
sbag1
(g8
g3
NtRp445
(dp446
g11
g17
sg13
VHack
p447
sg15
I700
sg16
g17
sg18
g17
sg19
V/Users/zhaoyu/Library/Fonts/Hack-Bold.ttf
p448
sg21
g22
sbag1
(g8
g3
NtRp449
(dp450
g11
g17
sg13
VInconsolata for Powerline
p451
sg15
I400
sg16
g17
sg18
g17
sg19
V/Users/zhaoyu/Library/Fonts/Inconsolata for Powerline.otf
p452
sg21
g22
sbag1
(g8
g3
NtRp453
(dp454
g11
g17
sg13
VSource Code Pro
p455
sg15
I500
sg16
g17
sg18
g17
sg19
V/Users/zhaoyu/Library/Fonts/SourceCodePro-Medium.ttf
p456
sg21
g22
sbag1
(g8
g3
NtRp457
(dp458
g11
g17
sg13
VSerto Mardin
p459
sg15
I400
sg16
g17
sg18
g17
sg19
V/usr/X11/lib/X11/fonts/OTF/SyrCOMMardin.otf
p460
sg21
g22
sbag1
(g8
g3
NtRp461
(dp462
g11
g17
sg13
VSystem Font
p463
sg15
I400
sg16
g17
sg18
g17
sg19
V/System/Library/Fonts/SFNSText-BoldG1.otf
p464
sg21
g22
sbag1
(g8
g3
NtRp465
(dp466
g11
g17
sg13
VSymbol Neu for Powerline
p467
sg15
I400
sg16
g17
sg18
g17
sg19
V/Users/zhaoyu/Library/Fonts/Symbol Neu for Powerline.ttf
p468
sg21
g22
sbag1
(g8
g3
NtRp469
(dp470
g11
g17
sg13
VDejaVu Sans Mono for Powerline
p471
sg15
I700
sg16
g17
sg18
g17
sg19
V/Users/zhaoyu/Library/Fonts/DejaVu Sans Mono Bold for Powerline.ttf
p472
sg21
g22
sbag1
(g8
g3
NtRp473
(dp474
g11
g17
sg13
VBradley Hand
p475
sg15
I700
sg16
g17
sg18
g17
sg19
V/Library/Fonts/Bradley Hand Bold.ttf
p476
sg21
g22
sbag1
(g8
g3
NtRp477
(dp478
g11
g17
sg13
VSystem Font
p479
sg15
I400
sg16
g17
sg18
g17
sg19
V/System/Library/Fonts/SFNSText-SemiboldItalic.otf
p480
sg21
g22
sbag1
(g8
g3
NtRp481
(dp482
g11
g17
sg13
VMeslo LG S DZ for Powerline
p483
sg15
I400
sg16
g17
sg18
g17
sg19
V/Users/zhaoyu/Library/Fonts/Meslo LG S DZ Regular for Powerline.otf
p484
sg21
g22
sbag1
(g8
g3
NtRp485
(dp486
g11
g17
sg13
VInconsolata-g for Powerline
p487
sg15
I400
sg16
g17
sg18
g17
sg19
V/Users/zhaoyu/Library/Fonts/Inconsolata-g for Powerline.otf
p488
sg21
g22
sbag1
(g8
g3
NtRp489
(dp490
g11
g89
sg13
VTimes New Roman
p491
sg15
I700
sg16
g17
sg18
g17
sg19
V/Library/Fonts/Times New Roman Bold Italic.ttf
p492
sg21
g22
sbag1
(g8
g3
NtRp493
(dp494
g11
g89
sg13
VArial Narrow
p495
sg15
I400
sg16
g215
sg18
g17
sg19
V/Library/Fonts/Arial Narrow Italic.ttf
p496
sg21
g22
sbag1
(g8
g3
NtRp497
(dp498
g11
g89
sg13
VArimo for Powerline
p499
sg15
I700
sg16
g17
sg18
g17
sg19
V/Users/zhaoyu/Library/Fonts/Arimo Bold Italic for Powerline.ttf
p500
sg21
g22
sbag1
(g8
g3
NtRp501
(dp502
g11
g17
sg13
VArimo for Powerline
p503
sg15
I700
sg16
g17
sg18
g17
sg19
V/Users/zhaoyu/Library/Fonts/Arimo Bold for Powerline.ttf
p504
sg21
g22
sbag1
(g8
g3
NtRp505
(dp506
g11
g17
sg13
VLuxi Mono
p507
sg15
I400
sg16
g17
sg18
g17
sg19
V/usr/X11R6/lib/X11/fonts/TTF/luximr.ttf
p508
sg21
g22
sbag1
(g8
g3
NtRp509
(dp510
g11
g17
sg13
VSystem Font
p511
sg15
I400
sg16
g17
sg18
g17
sg19
V/System/Library/Fonts/SFNSText-RegularItalicG3.otf
p512
sg21
g22
sbag1
(g8
g3
NtRp513
(dp514
g11
g17
sg13
VPilGi
p515
sg15
I400
sg16
g17
sg18
g17
sg19
V/Library/Fonts/Pilgiche.ttf
p516
sg21
g22
sbag1
(g8
g3
NtRp517
(dp518
g11
g17
sg13
VEstrangelo Midyat
p519
sg15
I400
sg16
g17
sg18
g17
sg19
V/usr/X11/lib/X11/fonts/OTF/SyrCOMMidyat.otf
p520
sg21
g22
sbag1
(g8
g3
NtRp521
(dp522
g11
g17
sg13
VApple Braille
p523
sg15
I400
sg16
g17
sg18
g17
sg19
V/System/Library/Fonts/Apple Braille Outline 8 Dot.ttf
p524
sg21
g22
sbag1
(g8
g3
NtRp525
(dp526
g11
g17
sg13
VSystem Font
p527
sg15
I400
sg16
g17
sg18
g17
sg19
V/System/Library/Fonts/SFNSText-RegularItalicG2.otf
p528
sg21
g22
sbag1
(g8
g3
NtRp529
(dp530
g11
g17
sg13
VPlantagenet Cherokee
p531
sg15
I400
sg16
g17
sg18
g17
sg19
V/Library/Fonts/PlantagenetCherokee.ttf
p532
sg21
g22
sbag1
(g8
g3
NtRp533
(dp534
g11
g17
sg13
VMeslo LG L DZ for Powerline
p535
sg15
I400
sg16
g17
sg18
g17
sg19
V/Users/zhaoyu/Library/Fonts/Meslo LG L DZ Regular for Powerline.otf
p536
sg21
g22
sbag1
(g8
g3
NtRp537
(dp538
g11
g17
sg13
VTimes New Roman
p539
sg15
I700
sg16
g17
sg18
g17
sg19
V/Library/Fonts/Times New Roman Bold.ttf
p540
sg21
g22
sbag1
(g8
g3
NtRp541
(dp542
g11
g89
sg13
VSource Code Pro
p543
sg15
I900
sg16
g17
sg18
g17
sg19
V/Users/zhaoyu/Library/Fonts/SourceCodePro-BlackIt.ttf
p544
sg21
g22
sbag1
(g8
g3
NtRp545
(dp546
g11
g17
sg13
VFira Mono for Powerline
p547
sg15
I700
sg16
g17
sg18
g17
sg19
V/Users/zhaoyu/Library/Fonts/FuraMono-Bold Powerline.otf
p548
sg21
g22
sbag1
(g8
g3
NtRp549
(dp550
g11
g89
sg13
VTinos for Powerline
p551
sg15
I400
sg16
g17
sg18
g17
sg19
V/Users/zhaoyu/Library/Fonts/Tinos Italic for Powerline.ttf
p552
sg21
g22
sbag1
(g8
g3
NtRp553
(dp554
g11
g12
sg13
VLuxi Sans
p555
sg15
I700
sg16
g17
sg18
g17
sg19
V/usr/X11/lib/X11/fonts/TTF/luxisbi.ttf
p556
sg21
g22
sbag1
(g8
g3
NtRp557
(dp558
g11
g89
sg13
VArial
p559
sg15
I700
sg16
g17
sg18
g17
sg19
V/Library/Fonts/Arial Bold Italic.ttf
p560
sg21
g22
sbag1
(g8
g3
NtRp561
(dp562
g11
g17
sg13
VGoha-Tibeb Zemen
p563
sg15
I400
sg16
g17
sg18
g17
sg19
V/usr/X11/lib/X11/fonts/TTF/GohaTibebZemen.ttf
p564
sg21
g22
sbag1
(g8
g3
NtRp565
(dp566
g11
g17
sg13
VHeadLineA
p567
sg15
I400
sg16
g17
sg18
g17
sg19
V/Library/Fonts/HeadlineA.ttf
p568
sg21
g22
sbag1
(g8
g3
NtRp569
(dp570
g11
g17
sg13
VUbuntu Mono derivative Powerline
p571
sg15
I400
sg16
g17
sg18
g17
sg19
V/Users/zhaoyu/Library/Fonts/Ubuntu Mono derivative Powerline.ttf
p572
sg21
g22
sbag1
(g8
g3
NtRp573
(dp574
g11
g17
sg13
VSTIXVariants
p575
sg15
I400
sg16
g17
sg18
g17
sg19
V/Library/Fonts/STIXVar.otf
p576
sg21
g22
sbag1
(g8
g3
NtRp577
(dp578
g11
g17
sg13
VMishafi
p579
sg15
I400
sg16
g17
sg18
g17
sg19
V/Library/Fonts/Mishafi.ttf
p580
sg21
g22
sbag1
(g8
g3
NtRp581
(dp582
g11
g17
sg13
VSTIXVariants
p583
sg15
I700
sg16
g17
sg18
g17
sg19
V/Library/Fonts/STIXVarBol.otf
p584
sg21
g22
sbag1
(g8
g3
NtRp585
(dp586
g11
g17
sg13
VSystem Font
p587
sg15
I400
sg16
g17
sg18
g17
sg19
V/System/Library/Fonts/SFNSText-BoldItalic.otf
p588
sg21
g22
sbag1
(g8
g3
NtRp589
(dp590
g11
g17
sg13
VSystem Font
p591
sg15
I400
sg16
g17
sg18
g17
sg19
V/System/Library/Fonts/SFNSText-BoldItalicG1.otf
p592
sg21
g22
sbag1
(g8
g3
NtRp593
(dp594
g11
g17
sg13
VSerto Jerusalem
p595
sg15
I400
sg16
g17
sg18
g17
sg19
V/usr/X11/lib/X11/fonts/OTF/SyrCOMJerusalem.otf
p596
sg21
g22
sbag1
(g8
g3
NtRp597
(dp598
g11
g17
sg13
VSerto Batnan
p599
sg15
I400
sg16
g17
sg18
g17
sg19
V/usr/X11/lib/X11/fonts/OTF/SyrCOMBatnan.otf
p600
sg21
g22
sbag1
(g8
g3
NtRp601
(dp602
g11
g17
sg13
VSTFangsong
p603
sg15
I400
sg16
g17
sg18
g17
sg19
V/Library/Fonts/\u534e\u6587\u4eff\u5b8b.ttf
p604
sg21
g22
sbag1
(g8
g3
NtRp605
(dp606
g11
g17
sg13
VInconsolata-dz for Powerline
p607
sg15
I400
sg16
g17
sg18
g17
sg19
V/Users/zhaoyu/Library/Fonts/Inconsolata-dz for Powerline.otf
p608
sg21
g22
sbag1
(g8
g3
NtRp609
(dp610
g11
g89
sg13
VRoboto Mono for Powerline
p611
sg15
I400
sg16
g17
sg18
g17
sg19
V/Users/zhaoyu/Library/Fonts/Roboto Mono Italic for Powerline.ttf
p612
sg21
g22
sbag1
(g8
g3
NtRp613
(dp614
g11
g89
sg13
VSource Code Pro
p615
sg15
I700
sg16
g17
sg18
g17
sg19
V/Users/zhaoyu/Library/Fonts/SourceCodePro-SemiboldIt.ttf
p616
sg21
g22
sbag1
(g8
g3
NtRp617
(dp618
g11
g17
sg13
VSTHeiti
p619
sg15
I400
sg16
g17
sg18
g17
sg19
V/Library/Fonts/\u534e\u6587\u9ed1\u4f53.ttf
p620
sg21
g22
sbag1
(g8
g3
NtRp621
(dp622
g11
g17
sg13
VSystem Font
p623
sg15
I400
sg16
g17
sg18
g17
sg19
V/System/Library/Fonts/SFNSText-Regular.otf
p624
sg21
g22
sbag1
(g8
g3
NtRp625
(dp626
g11
g17
sg13
VSTIXIntegralsUp
p627
sg15
I700
sg16
g17
sg18
g17
sg19
V/Library/Fonts/STIXIntUpBol.otf
p628
sg21
g22
sbag1
(g8
g3
NtRp629
(dp630
g11
g17
sg13
VWawati TC
p631
sg15
I400
sg16
g17
sg18
g17
sg19
V/Library/Fonts/WawaTC-Regular.otf
p632
sg21
g22
sbag1
(g8
g3
NtRp633
(dp634
g11
g17
sg13
VSource Code Pro
p635
sg15
I700
sg16
g17
sg18
g17
sg19
V/Users/zhaoyu/Library/Fonts/SourceCodePro-Semibold.ttf
p636
sg21
g22
sbag1
(g8
g3
NtRp637
(dp638
g11
g17
sg13
VAnonymous Pro for Powerline
p639
sg15
I700
sg16
g17
sg18
g17
sg19
V/Users/zhaoyu/Library/Fonts/Anonymice Powerline Bold.ttf
p640
sg21
g22
sbag1
(g8
g3
NtRp641
(dp642
g11
g17
sg13
VSkia
p643
sg15
I400
sg16
g17
sg18
g17
sg19
V/Library/Fonts/Skia.ttf
p644
sg21
g22
sbag1
(g8
g3
NtRp645
(dp646
g11
g17
sg13
VSTIXSizeFiveSym
p647
sg15
I400
sg16
g17
sg18
g17
sg19
V/Library/Fonts/STIXSizFiveSymReg.otf
p648
sg21
g22
sbag1
(g8
g3
NtRp649
(dp650
g11
g17
sg13
VVerdana
p651
sg15
I400
sg16
g17
sg18
g17
sg19
V/Library/Fonts/Verdana.ttf
p652
sg21
g22
sbag1
(g8
g3
NtRp653
(dp654
g11
g17
sg13
VFarisi
p655
sg15
I400
sg16
g17
sg18
g17
sg19
V/Library/Fonts/Farisi.ttf
p656
sg21
g22
sbag1
(g8
g3
NtRp657
(dp658
g11
g89
sg13
VSource Code Pro
p659
sg15
I200
sg16
g17
sg18
g17
sg19
V/Users/zhaoyu/Library/Fonts/SourceCodePro-ExtraLightIt.ttf
p660
sg21
g22
sbag1
(g8
g3
NtRp661
(dp662
g11
g17
sg13
VDroid Sans Mono Dotted for Powerline
p663
sg15
I400
sg16
g17
sg18
g17
sg19
V/Users/zhaoyu/Library/Fonts/Droid Sans Mono Dotted for Powerline.ttf
p664
sg21
g22
sbag1
(g8
g3
NtRp665
(dp666
g11
g89
sg13
VRoboto Mono Thin for Powerline
p667
sg15
I400
sg16
g17
sg18
g17
sg19
V/Users/zhaoyu/Library/Fonts/Roboto Mono Thin Italic for Powerline.ttf
p668
sg21
g22
sbag1
(g8
g3
NtRp669
(dp670
g11
g17
sg13
VSerto Urhoy
p671
sg15
I700
sg16
g17
sg18
g17
sg19
V/usr/X11/lib/X11/fonts/OTF/SyrCOMUrhoyBold.otf
p672
sg21
g22
sbag1
(g8
g3
NtRp673
(dp674
g11
g17
sg13
VGurmukhi MT
p675
sg15
I400
sg16
g17
sg18
g17
sg19
V/Library/Fonts/Gurmukhi.ttf
p676
sg21
g22
sbag1
(g8
g3
NtRp677
(dp678
g11
g17
sg13
VBodoni 72 Smallcaps
p679
sg15
I400
sg16
g17
sg18
g17
sg19
V/Library/Fonts/Bodoni 72 Smallcaps Book.ttf
p680
sg21
g22
sbag1
(g8
g3
NtRp681
(dp682
g11
g17
sg13
VYuGothic
p683
sg15
I700
sg16
g17
sg18
g17
sg19
V/Library/Fonts/Yu Gothic Bold.otf
p684
sg21
g22
sbag1
(g8
g3
NtRp685
(dp686
g11
g17
sg13
VSource Code Pro
p687
sg15
I900
sg16
g17
sg18
g17
sg19
V/Users/zhaoyu/Library/Fonts/SourceCodePro-Black.ttf
p688
sg21
g22
sbag1
(g8
g3
NtRp689
(dp690
g11
g17
sg13
VSystem Font
p691
sg15
I400
sg16
g17
sg18
g17
sg19
V/System/Library/Fonts/SFNSText-RegularItalicG1.otf
p692
sg21
g22
sbag1
(g8
g3
NtRp693
(dp694
g11
g17
sg13
VSystem Font
p695
sg15
I400
sg16
g17
sg18
g17
sg19
V/System/Library/Fonts/SFNSText-BoldItalicG3.otf
p696
sg21
g22
sbag1
(g8
g3
NtRp697
(dp698
g11
g17
sg13
VSystem Font
p699
sg15
I400
sg16
g17
sg18
g17
sg19
V/System/Library/Fonts/SFNSText-Bold.otf
p700
sg21
g22
sbag1
(g8
g3
NtRp701
(dp702
g11
g17
sg13
VLuxi Sans
p703
sg15
I400
sg16
g17
sg18
g17
sg19
V/usr/X11/lib/X11/fonts/TTF/luxisr.ttf
p704
sg21
g22
sbag1
(g8
g3
NtRp705
(dp706
g11
g17
sg13
VMeslo LG L for Powerline
p707
sg15
I400
sg16
g17
sg18
g17
sg19
V/Users/zhaoyu/Library/Fonts/Meslo LG L Regular for Powerline.otf
p708
sg21
g22
sbag1
(g8
g3
NtRp709
(dp710
g11
g89
sg13
VArial
p711
sg15
I400
sg16
g17
sg18
g17
sg19
V/Library/Fonts/Arial Italic.ttf
p712
sg21
g22
sbag1
(g8
g3
NtRp713
(dp714
g11
g17
sg13
VEast Syriac Adiabene
p715
sg15
I400
sg16
g17
sg18
g17
sg19
V/usr/X11/lib/X11/fonts/OTF/SyrCOMAdiabene.otf
p716
sg21
g22
sbag1
(g8
g3
NtRp717
(dp718
g11
g17
sg13
VTinos for Powerline
p719
sg15
I400
sg16
g17
sg18
g17
sg19
V/Users/zhaoyu/Library/Fonts/Tinos for Powerline.ttf
p720
sg21
g22
sbag1
(g8
g3
NtRp721
(dp722
g11
g17
sg13
VSystem Font
p723
sg15
I400
sg16
g17
sg18
g17
sg19
V/System/Library/Fonts/SFNSDisplay-Light.otf
p724
sg21
g22
sbag1
(g8
g3
NtRp725
(dp726
g11
g89
sg13
VSTIXNonUnicode
p727
sg15
I700
sg16
g17
sg18
g17
sg19
V/Library/Fonts/STIXNonUniBolIta.otf
p728
sg21
g22
sbag1
(g8
g3
NtRp729
(dp730
g11
g17
sg13
VApple Braille
p731
sg15
I400
sg16
g17
sg18
g17
sg19
V/System/Library/Fonts/Apple Braille Pinpoint 8 Dot.ttf
p732
sg21
g22
sbag1
(g8
g3
NtRp733
(dp734
g11
g17
sg13
VLuxi Serif
p735
sg15
I700
sg16
g17
sg18
g17
sg19
V/usr/X11R6/lib/X11/fonts/TTF/luxirb.ttf
p736
sg21
g22
sbag1
(g8
g3
NtRp737
(dp738
g11
g89
sg13
VGeorgia
p739
sg15
I400
sg16
g17
sg18
g17
sg19
V/Library/Fonts/Georgia Italic.ttf
p740
sg21
g22
sbag1
(g8
g3
NtRp741
(dp742
g11
g17
sg13
VApple Braille
p743
sg15
I400
sg16
g17
sg18
g17
sg19
V/System/Library/Fonts/Apple Braille Outline 6 Dot.ttf
p744
sg21
g22
sbag1
(g8
g3
NtRp745
(dp746
g11
g17
sg13
VCousine for Powerline
p747
sg15
I700
sg16
g17
sg18
g17
sg19
V/Users/zhaoyu/Library/Fonts/Cousine Bold for Powerline.ttf
p748
sg21
g22
sbag1
(g8
g3
NtRp749
(dp750
g11
g89
sg13
VCourier New
p751
sg15
I700
sg16
g17
sg18
g17
sg19
V/Library/Fonts/Courier New Bold Italic.ttf
p752
sg21
g22
sbag1
(g8
g3
NtRp753
(dp754
g11
g17
sg13
VWawati SC
p755
sg15
I400
sg16
g17
sg18
g17
sg19
V/Library/Fonts/WawaSC-Regular.otf
p756
sg21
g22
sbag1
(g8
g3
NtRp757
(dp758
g11
g17
sg13
VEstrangelo Talada
p759
sg15
I400
sg16
g17
sg18
g17
sg19
V/usr/X11/lib/X11/fonts/OTF/SyrCOMTalada.otf
p760
sg21
g22
sbag1
(g8
g3
NtRp761
(dp762
g11
g17
sg13
VFangSong
p763
sg15
I400
sg16
g17
sg18
g17
sg19
V/Users/zhaoyu/Library/Fonts/simfang.ttf
p764
sg21
g22
sbag1
(g8
g3
NtRp765
(dp766
g11
g17
sg13
VSystem Font
p767
sg15
I400
sg16
g17
sg18
g17
sg19
V/System/Library/Fonts/SFNSText-RegularG3.otf
p768
sg21
g22
sbag1
(g8
g3
NtRp769
(dp770
g11
g17
sg13
VArial Rounded MT Bold
p771
sg15
I700
sg16
g17
sg18
g17
sg19
V/Library/Fonts/Arial Rounded Bold.ttf
p772
sg21
g22
sbag1
(g8
g3
NtRp773
(dp774
g11
g89
sg13
VSource Code Pro
p775
sg15
I500
sg16
g17
sg18
g17
sg19
V/Users/zhaoyu/Library/Fonts/SourceCodePro-MediumIt.ttf
p776
sg21
g22
sbag1
(g8
g3
NtRp777
(dp778
g11
g89
sg13
VAnonymous Pro for Powerline
p779
sg15
I700
sg16
g17
sg18
g17
sg19
V/Users/zhaoyu/Library/Fonts/Anonymice Powerline Bold Italic.ttf
p780
sg21
g22
sbag1
(g8
g3
NtRp781
(dp782
g11
g17
sg13
VRoboto Mono for Powerline
p783
sg15
I400
sg16
g17
sg18
g17
sg19
V/Users/zhaoyu/Library/Fonts/Roboto Mono for Powerline.ttf
p784
sg21
g22
sbag1
(g8
g3
NtRp785
(dp786
g11
g89
sg13
VCousine for Powerline
p787
sg15
I700
sg16
g17
sg18
g17
sg19
V/Users/zhaoyu/Library/Fonts/Cousine Bold Italic for Powerline.ttf
p788
sg21
g22
sbag1
(g8
g3
NtRp789
(dp790
g11
g17
sg13
VSystem Font
p791
sg15
I400
sg16
g17
sg18
g17
sg19
V/System/Library/Fonts/SFNSText-Semibold.otf
p792
sg21
g22
sbag1
(g8
g3
NtRp793
(dp794
g11
g17
sg13
VPCMyungjo
p795
sg15
I400
sg16
g17
sg18
g17
sg19
V/Library/Fonts/PCmyoungjo.ttf
p796
sg21
g22
sbag1
(g8
g3
NtRp797
(dp798
g11
g17
sg13
V.LastResort
p799
sg15
I400
sg16
g17
sg18
g17
sg19
V/System/Library/Fonts/LastResort.ttf
p800
sg21
g22
sbag1
(g8
g3
NtRp801
(dp802
g11
g89
sg13
VVerdana
p803
sg15
I700
sg16
g17
sg18
g17
sg19
V/Library/Fonts/Verdana Bold Italic.ttf
p804
sg21
g22
sbag1
(g8
g3
NtRp805
(dp806
g11
g17
sg13
VEstrangelo Quenneshrin
p807
sg15
I400
sg16
g17
sg18
g17
sg19
V/usr/X11/lib/X11/fonts/OTF/SyrCOMQenNeshrin.otf
p808
sg21
g22
sbag1
(g8
g3
NtRp809
(dp810
g11
g17
sg13
VLiHei Pro
p811
sg15
I400
sg16
g17
sg18
g17
sg19
V/Library/Fonts/\u5137\u9ed1 Pro.ttf
p812
sg21
g22
sbag1
(g8
g3
NtRp813
(dp814
g11
g17
sg13
VSystem Font
p815
sg15
I400
sg16
g17
sg18
g17
sg19
V/System/Library/Fonts/SFNSText-LightItalic.otf
p816
sg21
g22
sbag1
(g8
g3
NtRp817
(dp818
g11
g17
sg13
VInaiMathi
p819
sg15
I400
sg16
g17
sg18
g17
sg19
V/Library/Fonts/InaiMathi.ttf
p820
sg21
g22
sbag1
(g8
g3
NtRp821
(dp822
g11
g17
sg13
VSystem Font
p823
sg15
I400
sg16
g17
sg18
g17
sg19
V/System/Library/Fonts/SFNSText-BoldG2.otf
p824
sg21
g22
sbag1
(g8
g3
NtRp825
(dp826
g11
g17
sg13
VSTIXIntegralsSm
p827
sg15
I400
sg16
g17
sg18
g17
sg19
V/Library/Fonts/STIXIntSmReg.otf
p828
sg21
g22
sbag1
(g8
g3
NtRp829
(dp830
g11
g17
sg13
VKokonor
p831
sg15
I400
sg16
g17
sg18
g17
sg19
V/Library/Fonts/Kokonor.ttf
p832
sg21
g22
sbag1
(g8
g3
NtRp833
(dp834
g11
g17
sg13
Vmonofur for Powerline
p835
sg15
I400
sg16
g17
sg18
g17
sg19
V/Users/zhaoyu/Library/Fonts/Monofur for Powerline.ttf
p836
sg21
g22
sbag1
(g8
g3
NtRp837
(dp838
g11
g89
sg13
VVerdana
p839
sg15
I400
sg16
g17
sg18
g17
sg19
V/Library/Fonts/Verdana Italic.ttf
p840
sg21
g22
sbag1
(g8
g3
NtRp841
(dp842
g11
g17
sg13
VSTIXGeneral
p843
sg15
I700
sg16
g17
sg18
g17
sg19
V/Library/Fonts/STIXGeneralBol.otf
p844
sg21
g22
sbag1
(g8
g3
NtRp845
(dp846
g11
g17
sg13
VApple Braille
p847
sg15
I400
sg16
g17
sg18
g17
sg19
V/System/Library/Fonts/Apple Braille.ttf
p848
sg21
g22
sbag1
(g8
g3
NtRp849
(dp850
g11
g17
sg13
VSource Code Pro
p851
sg15
I200
sg16
g17
sg18
g17
sg19
V/Users/zhaoyu/Library/Fonts/SourceCodePro-Light.ttf
p852
sg21
g22
sbag1
(g8
g3
NtRp853
(dp854
g11
g17
sg13
VSource Code Pro for Powerline
p855
sg15
I700
sg16
g17
sg18
g17
sg19
V/Users/zhaoyu/Library/Fonts/Sauce Code Powerline Bold.otf
p856
sg21
g22
sbag1
(g8
g3
NtRp857
(dp858
g11
g17
sg13
VSystem Font
p859
sg15
I400
sg16
g17
sg18
g17
sg19
V/System/Library/Fonts/SFNSText-Light.otf
p860
sg21
g22
sbag1
(g8
g3
NtRp861
(dp862
g11
g17
sg13
VSystem Font
p863
sg15
I400
sg16
g17
sg18
g17
sg19
V/System/Library/Fonts/SFNSDisplay-Ultralight.otf
p864
sg21
g22
sbag1
(g8
g3
NtRp865
(dp866
g11
g17
sg13
VChalkduster
p867
sg15
I400
sg16
g17
sg18
g17
sg19
V/Library/Fonts/Chalkduster.ttf
p868
sg21
g22
sbag1
(g8
g3
NtRp869
(dp870
g11
g17
sg13
VLiberation Mono for Powerline
p871
sg15
I400
sg16
g17
sg18
g17
sg19
V/Users/zhaoyu/Library/Fonts/Literation Mono Powerline.ttf
p872
sg21
g22
sbag1
(g8
g3
NtRp873
(dp874
g11
g17
sg13
VEstrangelo Antioch
p875
sg15
I400
sg16
g17
sg18
g17
sg19
V/usr/X11/lib/X11/fonts/OTF/SyrCOMAntioch.otf
p876
sg21
g22
sbag1
(g8
g3
NtRp877
(dp878
g11
g17
sg13
VWeibei TC
p879
sg15
I700
sg16
g17
sg18
g17
sg19
V/Library/Fonts/WeibeiTC-Bold.otf
p880
sg21
g22
sbag1
(g8
g3
NtRp881
(dp882
g11
g89
sg13
VLiberation Mono for Powerline
p883
sg15
I400
sg16
g17
sg18
g17
sg19
V/Users/zhaoyu/Library/Fonts/Literation Mono Powerline Italic.ttf
p884
sg21
g22
sbag1
(g8
g3
NtRp885
(dp886
g11
g89
sg13
VSource Code Pro
p887
sg15
I700
sg16
g17
sg18
g17
sg19
V/Users/zhaoyu/Library/Fonts/SourceCodePro-BoldIt.ttf
p888
sg21
g22
sbag1
(g8
g3
NtRp889
(dp890
g11
g17
sg13
VSTIXNonUnicode
p891
sg15
I400
sg16
g17
sg18
g17
sg19
V/Library/Fonts/STIXNonUni.otf
p892
sg21
g22
sbag1
(g8
g3
NtRp893
(dp894
g11
g17
sg13
VEstrangelo Edessa
p895
sg15
I400
sg16
g17
sg18
g17
sg19
V/usr/X11/lib/X11/fonts/OTF/SyrCOMEdessa.otf
p896
sg21
g22
sbag1
(g8
g3
NtRp897
(dp898
g11
g89
sg13
VHack
p899
sg15
I700
sg16
g17
sg18
g17
sg19
V/Users/zhaoyu/Library/Fonts/Hack-BoldItalic.ttf
p900
sg21
g22
sbag1
(g8
g3
NtRp901
(dp902
g11
g17
sg13
VOsaka
p903
sg15
I400
sg16
g17
sg18
g17
sg19
V/Library/Fonts/OsakaMono.ttf
p904
sg21
g22
sbag1
(g8
g3
NtRp905
(dp906
g11
g89
sg13
VSTIXNonUnicode
p907
sg15
I400
sg16
g17
sg18
g17
sg19
V/Library/Fonts/STIXNonUniIta.otf
p908
sg21
g22
sbag1
(g8
g3
NtRp909
(dp910
g11
g17
sg13
VSTIXIntegralsUp
p911
sg15
I400
sg16
g17
sg18
g17
sg19
V/Library/Fonts/STIXIntUpReg.otf
p912
sg21
g22
sbag1
(g8
g3
NtRp913
(dp914
g11
g17
sg13
VYuppy SC
p915
sg15
I400
sg16
g17
sg18
g17
sg19
V/Library/Fonts/YuppySC-Regular.otf
p916
sg21
g22
sbag1
(g8
g3
NtRp917
(dp918
g11
g17
sg13
VSource Code Pro
p919
sg15
I400
sg16
g17
sg18
g17
sg19
V/Users/zhaoyu/Library/Fonts/SourceCodePro-Regular.ttf
p920
sg21
g22
sbag1
(g8
g3
NtRp921
(dp922
g11
g17
sg13
VComic Sans MS
p923
sg15
I700
sg16
g17
sg18
g17
sg19
V/Library/Fonts/Comic Sans MS Bold.ttf
p924
sg21
g22
sbag1
(g8
g3
NtRp925
(dp926
g11
g17
sg13
VTrebuchet MS
p927
sg15
I400
sg16
g17
sg18
g17
sg19
V/Library/Fonts/Trebuchet MS.ttf
p928
sg21
g22
sbag1
(g8
g3
NtRp929
(dp930
g11
g17
sg13
VSource Code Pro for Powerline
p931
sg15
I500
sg16
g17
sg18
g17
sg19
V/Users/zhaoyu/Library/Fonts/Sauce Code Powerline Medium.otf
p932
sg21
g22
sbag1
(g8
g3
NtRp933
(dp934
g11
g17
sg13
VLuxi Serif
p935
sg15
I400
sg16
g17
sg18
g17
sg19
V/usr/X11R6/lib/X11/fonts/TTF/luxirr.ttf
p936
sg21
g22
sbag1
(g8
g3
NtRp937
(dp938
g11
g17
sg13
VCourier New
p939
sg15
I700
sg16
g17
sg18
g17
sg19
V/Library/Fonts/Courier New Bold.ttf
p940
sg21
g22
sbag1
(g8
g3
NtRp941
(dp942
g11
g17
sg13
VBig Caslon
p943
sg15
I500
sg16
g17
sg18
g17
sg19
V/Library/Fonts/BigCaslon.ttf
p944
sg21
g22
sbag1
(g8
g3
NtRp945
(dp946
g11
g17
sg13
VEstrangelo TurAbdin
p947
sg15
I400
sg16
g17
sg18
g17
sg19
V/usr/X11/lib/X11/fonts/OTF/SyrCOMTurAbdin.otf
p948
sg21
g22
sbag1
(g8
g3
NtRp949
(dp950
g11
g17
sg13
VDroid Sans Mono for Powerline
p951
sg15
I400
sg16
g17
sg18
g17
sg19
V/Users/zhaoyu/Library/Fonts/Droid Sans Mono for Powerline.otf
p952
sg21
g22
sbag1
(g8
g3
NtRp953
(dp954
g11
g17
sg13
VSystem Font
p955
sg15
I400
sg16
g17
sg18
g17
sg19
V/System/Library/Fonts/SFNSText-Heavy.otf
p956
sg21
g22
sbag1
(g8
g3
NtRp957
(dp958
g11
g89
sg13
VRoboto Mono for Powerline
p959
sg15
I700
sg16
g17
sg18
g17
sg19
V/Users/zhaoyu/Library/Fonts/Roboto Mono Bold Italic for Powerline.ttf
p960
sg21
g22
sbag1
(g8
g3
NtRp961
(dp962
g11
g17
sg13
VAyuthaya
p963
sg15
I400
sg16
g17
sg18
g17
sg19
V/Library/Fonts/Ayuthaya.ttf
p964
sg21
g22
sbag1
(g8
g3
NtRp965
(dp966
g11
g17
sg13
VHerculanum
p967
sg15
I400
sg16
g17
sg18
g17
sg19
V/Library/Fonts/Herculanum.ttf
p968
sg21
g22
sbag1
(g8
g3
NtRp969
(dp970
g11
g17
sg13
VWebdings
p971
sg15
I400
sg16
g17
sg18
g17
sg19
V/Library/Fonts/Webdings.ttf
p972
sg21
g22
sbag1
(g8
g3
NtRp973
(dp974
g11
g17
sg13
VSystem Font
p975
sg15
I400
sg16
g17
sg18
g17
sg19
V/System/Library/Fonts/SFNSDisplay-Black.otf
p976
sg21
g22
sbag1
(g8
g3
NtRp977
(dp978
g11
g17
sg13
VApple Braille
p979
sg15
I400
sg16
g17
sg18
g17
sg19
V/System/Library/Fonts/Apple Braille Pinpoint 6 Dot.ttf
p980
sg21
g22
sbag1
(g8
g3
NtRp981
(dp982
g11
g89
sg13
Vmonofur for Powerline
p983
sg15
I400
sg16
g17
sg18
g17
sg19
V/Users/zhaoyu/Library/Fonts/Monofur Italic for Powerline.ttf
p984
sg21
g22
sbag1
(g8
g3
NtRp985
(dp986
g11
g17
sg13
VSymbol
p987
sg15
I400
sg16
g17
sg18
g17
sg19
V/System/Library/Fonts/Symbol.ttf
p988
sg21
g22
sbag1
(g8
g3
NtRp989
(dp990
g11
g17
sg13
VSystem Font
p991
sg15
I400
sg16
g17
sg18
g17
sg19
V/System/Library/Fonts/SFNSText-MediumItalic.otf
p992
sg21
g22
sbag1
(g8
g3
NtRp993
(dp994
g11
g89
sg13
VTrebuchet MS
p995
sg15
I700
sg16
g17
sg18
g17
sg19
V/Library/Fonts/Trebuchet MS Bold Italic.ttf
p996
sg21
g22
sbag1
(g8
g3
NtRp997
(dp998
g11
g17
sg13
VEast Syriac Ctesiphon
p999
sg15
I400
sg16
g17
sg18
g17
sg19
V/usr/X11/lib/X11/fonts/OTF/SyrCOMCtesiphon.otf
p1000
sg21
g22
sbag1
(g8
g3
NtRp1001
(dp1002
g11
g17
sg13
VSTHeiti
p1003
sg15
I400
sg16
g17
sg18
g17
sg19
V/Library/Fonts/\u534e\u6587\u7ec6\u9ed1.ttf
p1004
sg21
g22
sbag1
(g8
g3
NtRp1005
(dp1006
g11
g17
sg13
VSerto Malankara
p1007
sg15
I400
sg16
g17
sg18
g17
sg19
V/usr/X11/lib/X11/fonts/OTF/SyrCOMMalankara.otf
p1008
sg21
g22
sbag1
(g8
g3
NtRp1009
(dp1010
g11
g17
sg13
Vmonofur for Powerline
p1011
sg15
I700
sg16
g17
sg18
g17
sg19
V/Users/zhaoyu/Library/Fonts/Monofur Bold for Powerline.ttf
p1012
sg21
g22
sbag1
(g8
g3
NtRp1013
(dp1014
g11
g17
sg13
VWingdings 2
p1015
sg15
I400
sg16
g17
sg18
g17
sg19
V/Library/Fonts/Wingdings 2.ttf
p1016
sg21
g22
sbag1
(g8
g3
NtRp1017
(dp1018
g11
g17
sg13
VSignPainter
p1019
sg15
I400
sg16
g17
sg18
g17
sg19
V/Library/Fonts/SignPainter.otf
p1020
sg21
g22
sbag1
(g8
g3
NtRp1021
(dp1022
g11
g17
sg13
VTahoma
p1023
sg15
I400
sg16
g17
sg18
g17
sg19
V/Library/Fonts/Tahoma.ttf
p1024
sg21
g22
sbag1
(g8
g3
NtRp1025
(dp1026
g11
g89
sg13
VBrush Script MT
p1027
sg15
I400
sg16
g17
sg18
g17
sg19
V/Library/Fonts/Brush Script.ttf
p1028
sg21
g22
sbag1
(g8
g3
NtRp1029
(dp1030
g11
g17
sg13
V.Keyboard
p1031
sg15
I400
sg16
g17
sg18
g17
sg19
V/System/Library/Fonts/Keyboard.ttf
p1032
sg21
g22
sbag1
(g8
g3
NtRp1033
(dp1034
g11
g17
sg13
VSerto Jerusalem
p1035
sg15
I700
sg16
g17
sg18
g17
sg19
V/usr/X11/lib/X11/fonts/OTF/SyrCOMJerusalemBold.otf
p1036
sg21
g22
sbag1
(g8
g3
NtRp1037
(dp1038
g11
g17
sg13
VSTIXSizeOneSym
p1039
sg15
I400
sg16
g17
sg18
g17
sg19
V/Library/Fonts/STIXSizOneSymReg.otf
p1040
sg21
g22
sbag1
(g8
g3
NtRp1041
(dp1042
g11
g17
sg13
VSTIXIntegralsUpSm
p1043
sg15
I400
sg16
g17
sg18
g17
sg19
V/Library/Fonts/STIXIntUpSmReg.otf
p1044
sg21
g22
sbag1
(g8
g3
NtRp1045
(dp1046
g11
g17
sg13
VAndale Mono
p1047
sg15
I400
sg16
g17
sg18
g17
sg19
V/Library/Fonts/Andale Mono.ttf
p1048
sg21
g22
sbag1
(g8
g3
NtRp1049
(dp1050
g11
g17
sg13
VKhmer Sangam MN
p1051
sg15
I400
sg16
g17
sg18
g17
sg19
V/Library/Fonts/Khmer Sangam MN.ttf
p1052
sg21
g22
sbag1
(g8
g3
NtRp1053
(dp1054
g11
g12
sg13
VLuxi Mono
p1055
sg15
I700
sg16
g17
sg18
g17
sg19
V/usr/X11R6/lib/X11/fonts/TTF/luximbi.ttf
p1056
sg21
g22
sbag1
(g8
g3
NtRp1057
(dp1058
g11
g89
sg13
VCousine for Powerline
p1059
sg15
I400
sg16
g17
sg18
g17
sg19
V/Users/zhaoyu/Library/Fonts/Cousine Italic for Powerline.ttf
p1060
sg21
g22
sbag1
(g8
g3
NtRp1061
(dp1062
g11
g17
sg13
VMicrosoft Sans Serif
p1063
sg15
I400
sg16
g17
sg18
g17
sg19
V/Library/Fonts/Microsoft Sans Serif.ttf
p1064
sg21
g22
sbag1
(g8
g3
NtRp1065
(dp1066
g11
g17
sg13
VSource Code Pro for Powerline
p1067
sg15
I200
sg16
g17
sg18
g17
sg19
V/Users/zhaoyu/Library/Fonts/Sauce Code Powerline ExtraLight.otf
p1068
sg21
g22
sbag1
(g8
g3
NtRp1069
(dp1070
g11
g17
sg13
VSTIXIntegralsUpD
p1071
sg15
I700
sg16
g17
sg18
g17
sg19
V/Library/Fonts/STIXIntUpDBol.otf
p1072
sg21
g22
sbag1
(g8
g3
NtRp1073
(dp1074
g11
g89
sg13
VSource Code Pro
p1075
sg15
I200
sg16
g17
sg18
g17
sg19
V/Users/zhaoyu/Library/Fonts/SourceCodePro-LightIt.ttf
p1076
sg21
g22
sbag1
(g8
g3
NtRp1077
(dp1078
g11
g17
sg13
VSTIXGeneral
p1079
sg15
I400
sg16
g17
sg18
g17
sg19
V/Library/Fonts/STIXGeneral.otf
p1080
sg21
g22
sbag1
(g8
g3
NtRp1081
(dp1082
g11
g89
sg13
VCourier New
p1083
sg15
I400
sg16
g17
sg18
g17
sg19
V/Library/Fonts/Courier New Italic.ttf
p1084
sg21
g22
sbag1
(g8
g3
NtRp1085
(dp1086
g11
g17
sg13
VArial Black
p1087
sg15
I900
sg16
g17
sg18
g17
sg19
V/Library/Fonts/Arial Black.ttf
p1088
sg21
g22
sbag1
(g8
g3
NtRp1089
(dp1090
g11
g89
sg13
VRoboto Mono Medium for Powerline
p1091
sg15
I500
sg16
g17
sg18
g17
sg19
V/Users/zhaoyu/Library/Fonts/Roboto Mono Medium Italic for Powerline.ttf
p1092
sg21
g22
sbag1
(g8
g3
NtRp1093
(dp1094
g11
g89
sg13
VSTIXGeneral
p1095
sg15
I400
sg16
g17
sg18
g17
sg19
V/Library/Fonts/STIXGeneralItalic.otf
p1096
sg21
g22
sbag1
(g8
g3
NtRp1097
(dp1098
g11
g17
sg13
VSerto Urhoy
p1099
sg15
I400
sg16
g17
sg18
g17
sg19
V/usr/X11/lib/X11/fonts/OTF/SyrCOMUrhoy.otf
p1100
sg21
g22
sbag1
(g8
g3
NtRp1101
(dp1102
g11
g17
sg13
VGoha-Tibeb Zemen
p1103
sg15
I400
sg16
g17
sg18
g17
sg19
V/usr/X11/lib/X11/fonts/OTF/GohaTibebZemen.otf
p1104
sg21
g22
sbag1
(g8
g3
NtRp1105
(dp1106
g11
g17
sg13
VSilom
p1107
sg15
I400
sg16
g17
sg18
g17
sg19
V/Library/Fonts/Silom.ttf
p1108
sg21
g22
sbag1
(g8
g3
NtRp1109
(dp1110
g11
g17
sg13
VDejaVu Sans Mono for Powerline
p1111
sg15
I400
sg16
g17
sg18
g17
sg19
V/Users/zhaoyu/Library/Fonts/DejaVu Sans Mono for Powerline.ttf
p1112
sg21
g22
sbag1
(g8
g3
NtRp1113
(dp1114
g11
g17
sg13
VWeibei SC
p1115
sg15
I700
sg16
g17
sg18
g17
sg19
V/Library/Fonts/WeibeiSC-Bold.otf
p1116
sg21
g22
sbag1
(g8
g3
NtRp1117
(dp1118
g11
g89
sg13
VSource Code Pro
p1119
sg15
I400
sg16
g17
sg18
g17
sg19
V/Users/zhaoyu/Library/Fonts/SourceCodePro-It.ttf
p1120
sg21
g22
sbag1
(g8
g3
NtRp1121
(dp1122
g11
g17
sg13
VYuppy TC
p1123
sg15
I400
sg16
g17
sg18
g17
sg19
V/Library/Fonts/YuppyTC-Regular.otf
p1124
sg21
g22
sbag1
(g8
g3
NtRp1125
(dp1126
g11
g17
sg13
VSystem Font
p1127
sg15
I400
sg16
g17
sg18
g17
sg19
V/System/Library/Fonts/SFNSText-RegularG1.otf
p1128
sg21
g22
sbag1
(g8
g3
NtRp1129
(dp1130
g11
g17
sg13
VSystem Font
p1131
sg15
I400
sg16
g17
sg18
g17
sg19
V/System/Library/Fonts/SFNSDisplay-Thin.otf
p1132
sg21
g22
sbag1
(g8
g3
NtRp1133
(dp1134
g11
g17
sg13
VSTIXSizeFourSym
p1135
sg15
I400
sg16
g17
sg18
g17
sg19
V/Library/Fonts/STIXSizFourSymReg.otf
p1136
sg21
g22
sbag1
(g8
g3
NtRp1137
(dp1138
g11
g17
sg13
VMeslo LG S for Powerline
p1139
sg15
I400
sg16
g17
sg18
g17
sg19
V/Users/zhaoyu/Library/Fonts/Meslo LG S Regular for Powerline.otf
p1140
sg21
g22
sbag1
(g8
g3
NtRp1141
(dp1142
g11
g17
sg13
VApple Chancery
p1143
sg15
I400
sg16
g17
sg18
g17
sg19
V/Library/Fonts/Apple Chancery.ttf
p1144
sg21
g22
sbag1
(g8
g3
NtRp1145
(dp1146
g11
g17
sg13
VAnonymous Pro for Powerline
p1147
sg15
I400
sg16
g17
sg18
g17
sg19
V/Users/zhaoyu/Library/Fonts/Anonymice Powerline.ttf
p1148
sg21
g22
sbag1
(g8
g3
NtRp1149
(dp1150
g11
g89
sg13
VRoboto Mono Light for Powerline
p1151
sg15
I200
sg16
g17
sg18
g17
sg19
V/Users/zhaoyu/Library/Fonts/Roboto Mono Light Italic for Powerline.ttf
p1152
sg21
g22
sbag1
(g8
g3
NtRp1153
(dp1154
g11
g17
sg13
VTeamViewer12
p1155
sg15
I400
sg16
g17
sg18
g17
sg19
V/Library/Fonts/TeamViewer12.otf
p1156
sg21
g22
sbag1
(g8
g3
NtRp1157
(dp1158
g11
g17
sg13
VWingdings 3
p1159
sg15
I400
sg16
g17
sg18
g17
sg19
V/Library/Fonts/Wingdings 3.ttf
p1160
sg21
g22
sbag1
(g8
g3
NtRp1161
(dp1162
g11
g89
sg13
VSTIXGeneral
p1163
sg15
I700
sg16
g17
sg18
g17
sg19
V/Library/Fonts/STIXGeneralBolIta.otf
p1164
sg21
g22
sbag1
(g8
g3
NtRp1165
(dp1166
g11
g89
sg13
VUbuntu Mono derivative Powerline
p1167
sg15
I700
sg16
g17
sg18
g17
sg19
V/Users/zhaoyu/Library/Fonts/Ubuntu Mono derivative Powerline Bold Italic.ttf
p1168
sg21
g22
sbag1
(g8
g3
NtRp1169
(dp1170
g11
g17
sg13
VSTIXIntegralsUpSm
p1171
sg15
I700
sg16
g17
sg18
g17
sg19
V/Library/Fonts/STIXIntUpSmBol.otf
p1172
sg21
g22
sbag1
(g8
g3
NtRp1173
(dp1174
g11
g17
sg13
VLao Sangam MN
p1175
sg15
I400
sg16
g17
sg18
g17
sg19
V/Library/Fonts/Lao Sangam MN.ttf
p1176
sg21
g22
sbag1
(g8
g3
NtRp1177
(dp1178
g11
g17
sg13
VTrattatello
p1179
sg15
I400
sg16
g17
sg18
g17
sg19
V/Library/Fonts/Trattatello.ttf
p1180
sg21
g22
sbag1
(g8
g3
NtRp1181
(dp1182
g11
g17
sg13
VLuxi Sans
p1183
sg15
I700
sg16
g17
sg18
g17
sg19
V/usr/X11R6/lib/X11/fonts/TTF/luxisb.ttf
p1184
sg21
g22
sbag1
(g8
g3
NtRp1185
(dp1186
g11
g17
sg13
VLiberation Mono for Powerline
p1187
sg15
I700
sg16
g17
sg18
g17
sg19
V/Users/zhaoyu/Library/Fonts/Literation Mono Powerline Bold.ttf
p1188
sg21
g22
sbag1
(g8
g3
NtRp1189
(dp1190
g11
g89
sg13
VUbuntu Mono derivative Powerline
p1191
sg15
I400
sg16
g17
sg18
g17
sg19
V/Users/zhaoyu/Library/Fonts/Ubuntu Mono derivative Powerline Italic.ttf
p1192
sg21
g22
sbag1
(g8
g3
NtRp1193
(dp1194
g11
g17
sg13
VSTIXSizeOneSym
p1195
sg15
I700
sg16
g17
sg18
g17
sg19
V/Library/Fonts/STIXSizOneSymBol.otf
p1196
sg21
g22
sbag1
(g8
g3
NtRp1197
(dp1198
g11
g17
sg13
VComic Sans MS
p1199
sg15
I400
sg16
g17
sg18
g17
sg19
V/Library/Fonts/Comic Sans MS.ttf
p1200
sg21
g22
sbag1
(g8
g3
NtRp1201
(dp1202
g11
g17
sg13
VSTIXSizeTwoSym
p1203
sg15
I400
sg16
g17
sg18
g17
sg19
V/Library/Fonts/STIXSizTwoSymReg.otf
p1204
sg21
g22
sbag1
(g8
g3
NtRp1205
(dp1206
g11
g17
sg13
VEstrangelo Nisibin Outline
p1207
sg15
I400
sg16
g17
sg18
g17
sg19
V/usr/X11/lib/X11/fonts/OTF/SyrCOMNisibinOutline.otf
p1208
sg21
g22
sbag1
(g8
g3
NtRp1209
(dp1210
g11
g17
sg13
VBodoni Ornaments
p1211
sg15
I400
sg16
g17
sg18
g17
sg19
V/Library/Fonts/Bodoni Ornaments.ttf
p1212
sg21
g22
sbag1
(g8
g3
NtRp1213
(dp1214
g11
g17
sg13
VSTIXSizeFourSym
p1215
sg15
I700
sg16
g17
sg18
g17
sg19
V/Library/Fonts/STIXSizFourSymBol.otf
p1216
sg21
g22
sbag1
(g8
g3
NtRp1217
(dp1218
g11
g17
sg13
VSystem Font
p1219
sg15
I400
sg16
g17
sg18
g17
sg19
V/System/Library/Fonts/SFNSText-BoldG3.otf
p1220
sg21
g22
sbag1
(g8
g3
NtRp1221
(dp1222
g11
g17
sg13
VArial
p1223
sg15
I700
sg16
g17
sg18
g17
sg19
V/Library/Fonts/Arial Bold.ttf
p1224
sg21
g22
sbag1
(g8
g3
NtRp1225
(dp1226
g11
g17
sg13
VSource Code Pro
p1227
sg15
I200
sg16
g17
sg18
g17
sg19
V/Users/zhaoyu/Library/Fonts/SourceCodePro-ExtraLight.ttf
p1228
sg21
g22
sbag1
(g8
g3
NtRp1229
(dp1230
g11
g17
sg13
VGeorgia
p1231
sg15
I700
sg16
g17
sg18
g17
sg19
V/Library/Fonts/Georgia Bold.ttf
p1232
sg21
g22
sbag1
(g8
g3
NtRp1233
(dp1234
g11
g17
sg13
VSystem Font
p1235
sg15
I400
sg16
g17
sg18
g17
sg19
V/System/Library/Fonts/SFNSDisplay-Semibold.otf
p1236
sg21
g22
sbag1
(g8
g3
NtRp1237
(dp1238
g11
g17
sg13
VSTIXIntegralsD
p1239
sg15
I400
sg16
g17
sg18
g17
sg19
V/Library/Fonts/STIXIntDReg.otf
p1240
sg21
g22
sbag1
(g8
g3
NtRp1241
(dp1242
g11
g17
sg13
VGungSeo
p1243
sg15
I400
sg16
g17
sg18
g17
sg19
V/Library/Fonts/Gungseouche.ttf
p1244
sg21
g22
sbag1
(g8
g3
NtRp1245
(dp1246
g11
g17
sg13
VSource Code Pro for Powerline
p1247
sg15
I200
sg16
g17
sg18
g17
sg19
V/Users/zhaoyu/Library/Fonts/Sauce Code Powerline Light.otf
p1248
sg21
g22
sbag1
(g8
g3
NtRp1249
(dp1250
g11
g89
sg13
VSerto Jerusalem
p1251
sg15
I400
sg16
g17
sg18
g17
sg19
V/usr/X11/lib/X11/fonts/OTF/SyrCOMJerusalemItalic.otf
p1252
sg21
g22
sbag1
(g8
g3
NtRp1253
(dp1254
g11
g17
sg13
VSource Code Pro for Powerline
p1255
sg15
I700
sg16
g17
sg18
g17
sg19
V/Users/zhaoyu/Library/Fonts/Sauce Code Powerline Semibold.otf
p1256
sg21
g22
sbag1
(g8
g3
NtRp1257
(dp1258
g11
g17
sg13
VSTIXSizeTwoSym
p1259
sg15
I700
sg16
g17
sg18
g17
sg19
V/Library/Fonts/STIXSizTwoSymBol.otf
p1260
sg21
g22
sbag1
(g8
g3
NtRp1261
(dp1262
g11
g17
sg13
VWingdings
p1263
sg15
I400
sg16
g17
sg18
g17
sg19
V/Library/Fonts/Wingdings.ttf
p1264
sg21
g22
sbag1
(g8
g3
NtRp1265
(dp1266
g11
g17
sg13
VImpact
p1267
sg15
I400
sg16
g17
sg18
g17
sg19
V/Library/Fonts/Impact.ttf
p1268
sg21
g22
sbag1
(g8
g3
NtRp1269
(dp1270
g11
g89
sg13
VHack
p1271
sg15
I400
sg16
g17
sg18
g17
sg19
V/Users/zhaoyu/Library/Fonts/Hack-Italic.ttf
p1272
sg21
g22
sbag1
(g8
g3
NtRp1273
(dp1274
g11
g17
sg13
VTahoma
p1275
sg15
I700
sg16
g17
sg18
g17
sg19
V/Library/Fonts/Tahoma Bold.ttf
p1276
sg21
g22
sbag1
(g8
g3
NtRp1277
(dp1278
g11
g17
sg13
VSTIXNonUnicode
p1279
sg15
I700
sg16
g17
sg18
g17
sg19
V/Library/Fonts/STIXNonUniBol.otf
p1280
sg21
g22
sbag1
(g8
g3
NtRp1281
(dp1282
g11
g89
sg13
VGeorgia
p1283
sg15
I700
sg16
g17
sg18
g17
sg19
V/Library/Fonts/Georgia Bold Italic.ttf
p1284
sg21
g22
sbag1
(g8
g3
NtRp1285
(dp1286
g11
g17
sg13
VSystem Font
p1287
sg15
I400
sg16
g17
sg18
g17
sg19
V/System/Library/Fonts/SFNSDisplay-Heavy.otf
p1288
sg21
g22
sbag1
(g8
g3
NtRp1289
(dp1290
g11
g17
sg13
VSTIXIntegralsUpD
p1291
sg15
I400
sg16
g17
sg18
g17
sg19
V/Library/Fonts/STIXIntUpDReg.otf
p1292
sg21
g22
sbag1
(g8
g3
NtRp1293
(dp1294
g11
g17
sg13
VSathu
p1295
sg15
I400
sg16
g17
sg18
g17
sg19
V/Library/Fonts/Sathu.ttf
p1296
sg21
g22
sbag1
(g8
g3
NtRp1297
(dp1298
g11
g17
sg13
VMeslo LG M for Powerline
p1299
sg15
I400
sg16
g17
sg18
g17
sg19
V/Users/zhaoyu/Library/Fonts/Meslo LG M Regular for Powerline.otf
p1300
sg21
g22
sbag1
(g8
g3
NtRp1301
(dp1302
g11
g17
sg13
VUbuntu Mono derivative Powerline
p1303
sg15
I700
sg16
g17
sg18
g17
sg19
V/Users/zhaoyu/Library/Fonts/Ubuntu Mono derivative Powerline Bold.ttf
p1304
sg21
g22
sbag1
(g8
g3
NtRp1305
(dp1306
g11
g17
sg13
VSystem Font
p1307
sg15
I400
sg16
g17
sg18
g17
sg19
V/System/Library/Fonts/SFNSDisplay-Regular.otf
p1308
sg21
g22
sbasS'defaultFamily'
p1309
(dp1310
Vafm
p1311
VHelvetica
p1312
sVttf
p1313
VBitstream Vera Sans
p1314
ssS'ttffiles'
p1315
(lp1316
g20
ag26
ag30
ag34
ag38
ag42
ag46
ag50
ag54
ag58
ag62
ag66
ag70
ag74
ag78
ag82
ag86
ag91
ag95
ag99
ag103
ag107
ag111
ag115
ag119
ag123
ag127
ag131
ag135
ag139
ag143
ag147
ag151
ag155
ag159
aV/usr/X11R6/lib/X11/fonts/TTF/VeraBd.ttf
p1317
ag163
ag167
ag171
aV/usr/X11/lib/X11/fonts/TTF/VeraIt.ttf
p1318
aV/usr/X11R6/lib/X11/fonts/TTF/VeraBI.ttf
p1319
ag175
ag179
ag183
ag187
ag191
ag195
ag199
ag203
aV/usr/X11/lib/X11/fonts/TTF/VeraSe.ttf
p1320
ag207
ag211
ag216
ag220
ag224
ag228
ag232
ag236
ag240
aV/usr/X11R6/lib/X11/fonts/TTF/VeraMoIt.ttf
p1321
ag244
ag248
aV/usr/X11/lib/X11/fonts/TTF/VeraBd.ttf
p1322
ag252
ag256
ag260
ag264
ag268
ag272
ag276
ag280
aV/usr/X11/lib/X11/fonts/TTF/Vera.ttf
p1323
aV/Library/Fonts/NISC18030.ttf
p1324
ag284
ag288
ag292
ag296
ag300
ag304
aV/usr/X11R6/lib/X11/fonts/TTF/VeraMoBI.ttf
p1325
ag308
ag312
ag316
ag320
ag324
ag328
ag332
ag336
ag340
ag344
ag348
ag352
ag356
aV/usr/X11R6/lib/X11/fonts/TTF/VeraMono.ttf
p1326
ag360
ag364
ag368
ag372
ag376
ag380
ag384
ag388
ag392
ag396
ag400
ag404
ag408
ag412
ag416
ag420
ag424
ag428
ag432
ag436
ag440
ag444
ag448
ag452
ag456
ag460
ag464
ag468
ag472
ag476
ag480
ag484
ag488
ag492
ag496
ag500
ag504
ag508
ag512
ag516
ag520
ag524
aV/usr/X11R6/lib/X11/fonts/TTF/VeraSe.ttf
p1327
ag528
ag532
ag536
ag540
ag544
ag548
ag552
ag556
ag560
ag564
ag568
ag572
ag576
ag580
ag584
ag588
ag592
ag596
ag600
ag604
ag608
ag612
aV/usr/X11/lib/X11/fonts/TTF/VeraMoBd.ttf
p1328
aV/usr/X11/lib/X11/fonts/TTF/VeraMono.ttf
p1329
ag616
ag620
ag624
ag628
ag632
ag636
ag640
ag644
ag648
ag652
aV/usr/X11R6/lib/X11/fonts/TTF/luxisbi.ttf
p1330
ag656
ag660
ag664
ag668
ag672
ag676
ag680
ag684
ag688
ag692
aV/System/Library/Fonts/Apple Color Emoji.ttf
p1331
ag696
ag700
ag704
ag708
ag712
ag716
ag720
ag724
aV/usr/X11/lib/X11/fonts/TTF/VeraMoBI.ttf
p1332
ag728
ag732
ag736
ag740
ag744
ag748
ag752
ag756
ag760
ag764
ag768
ag772
ag776
ag780
aV/usr/X11/lib/X11/fonts/TTF/luxirri.ttf
p1333
ag784
ag788
ag792
ag796
ag800
ag804
ag808
ag812
ag816
ag820
ag824
ag828
ag832
aV/usr/X11R6/lib/X11/fonts/TTF/VeraIt.ttf
p1334
ag836
ag840
ag844
ag848
ag852
ag856
ag860
ag864
ag868
ag872
aV/usr/X11R6/lib/X11/fonts/TTF/Vera.ttf
p1335
ag876
ag880
ag884
ag888
ag892
aV/usr/X11/lib/X11/fonts/TTF/luxirbi.ttf
p1336
ag896
ag900
ag904
aV/usr/X11/lib/X11/fonts/TTF/luxirb.ttf
p1337
ag908
aV/usr/X11/lib/X11/fonts/TTF/VeraMoIt.ttf
p1338
ag912
ag916
ag920
ag924
ag928
ag932
ag936
aV/usr/X11/lib/X11/fonts/TTF/VeraBI.ttf
p1339
ag940
ag944
ag948
ag952
ag956
ag960
ag964
ag968
ag972
ag976
ag980
ag984
ag988
ag992
aV/usr/X11R6/lib/X11/fonts/TTF/luxisr.ttf
p1340
ag996
aV/usr/X11/lib/X11/fonts/TTF/VeraSeBd.ttf
p1341
ag1000
ag1004
ag1008
ag1012
ag1016
ag1020
ag1024
ag1028
ag1032
aV/usr/X11R6/lib/X11/fonts/TTF/VeraSeBd.ttf
p1342
ag1036
ag1040
ag1044
ag1048
ag1052
ag1056
ag1060
ag1064
ag1068
ag1072
ag1076
ag1080
ag1084
ag1088
aV/usr/X11/lib/X11/fonts/TTF/luxirr.ttf
p1343
ag1092
ag1096
ag1100
ag1104
ag1108
ag1112
ag1116
ag1120
ag1124
ag1128
ag1132
ag1136
ag1140
ag1144
aV/usr/X11R6/lib/X11/fonts/TTF/luximb.ttf
p1344
aV/usr/X11/lib/X11/fonts/TTF/luximr.ttf
p1345
ag1148
ag1152
ag1156
ag1160
ag1164
ag1168
ag1172
ag1176
aV/usr/X11R6/lib/X11/fonts/TTF/GohaTibebZemen.ttf
p1346
ag1180
ag1184
ag1188
ag1192
ag1196
ag1200
ag1204
ag1208
ag1212
ag1216
ag1220
aV/usr/X11R6/lib/X11/fonts/TTF/VeraMoBd.ttf
p1347
ag1224
ag1228
aV/usr/X11/lib/X11/fonts/TTF/luxisb.ttf
p1348
ag1232
ag1236
ag1240
ag1244
ag1248
ag1252
ag1256
aV/usr/X11R6/lib/X11/fonts/TTF/luxisri.ttf
p1349
ag1260
ag1264
ag1268
ag1272
ag1276
ag1280
ag1284
ag1288
ag1292
ag1296
aV/usr/X11R6/lib/X11/fonts/TTF/luximri.ttf
p1350
ag1300
ag1304
ag1308
aV/usr/X11/lib/X11/fonts/TTF/luximbi.ttf
p1351
asS'_FontManager__default_weight'
p1352
Vnormal
p1353
sS'_version'
p1354
I101
sS'default_size'
p1355
NsS'defaultFont'
p1356
(dp1357
g1311
V/Applications/vapor.app/Contents/lib/python2.7/site-packages/matplotlib/mpl-data/fonts/pdfcorefonts/Symbol.afm
p1358
sg1313
g123
ssS'afmfiles'
p1359
(lp1360
g1358
aV/Applications/vapor.app/Contents/lib/python2.7/site-packages/matplotlib/mpl-data/fonts/afm/cmmi10.afm
p1361
aV/Applications/vapor.app/Contents/lib/python2.7/site-packages/matplotlib/mpl-data/fonts/pdfcorefonts/Helvetica-BoldOblique.afm
p1362
aV/Applications/vapor.app/Contents/lib/python2.7/site-packages/matplotlib/mpl-data/fonts/afm/pbkl8a.afm
p1363
aV/Applications/vapor.app/Contents/lib/python2.7/site-packages/matplotlib/mpl-data/fonts/afm/pagdo8a.afm
p1364
aV/Applications/vapor.app/Contents/lib/python2.7/site-packages/matplotlib/mpl-data/fonts/pdfcorefonts/Courier-Oblique.afm
p1365
aV/Applications/vapor.app/Contents/lib/python2.7/site-packages/matplotlib/mpl-data/fonts/afm/ptmbi8a.afm
p1366
aV/Applications/vapor.app/Contents/lib/python2.7/site-packages/matplotlib/mpl-data/fonts/afm/ptmri8a.afm
p1367
aV/Applications/vapor.app/Contents/lib/python2.7/site-packages/matplotlib/mpl-data/fonts/afm/pplr8a.afm
p1368
aV/Applications/vapor.app/Contents/lib/python2.7/site-packages/matplotlib/mpl-data/fonts/afm/phvbo8an.afm
p1369
aV/Applications/vapor.app/Contents/lib/python2.7/site-packages/matplotlib/mpl-data/fonts/pdfcorefonts/Times-Italic.afm
p1370
aV/Applications/vapor.app/Contents/lib/python2.7/site-packages/matplotlib/mpl-data/fonts/afm/phvbo8a.afm
p1371
aV/Applications/vapor.app/Contents/lib/python2.7/site-packages/matplotlib/mpl-data/fonts/afm/ptmr8a.afm
p1372
aV/Applications/vapor.app/Contents/lib/python2.7/site-packages/matplotlib/mpl-data/fonts/afm/pcrbo8a.afm
p1373
aV/Applications/vapor.app/Contents/lib/python2.7/site-packages/matplotlib/mpl-data/fonts/pdfcorefonts/Times-Roman.afm
p1374
aV/Applications/vapor.app/Contents/lib/python2.7/site-packages/matplotlib/mpl-data/fonts/afm/phvb8a.afm
p1375
aV/Applications/vapor.app/Contents/lib/python2.7/site-packages/matplotlib/mpl-data/fonts/pdfcorefonts/Courier-BoldOblique.afm
p1376
aV/Applications/vapor.app/Contents/lib/python2.7/site-packages/matplotlib/mpl-data/fonts/pdfcorefonts/Courier.afm
p1377
aV/Applications/vapor.app/Contents/lib/python2.7/site-packages/matplotlib/mpl-data/fonts/afm/cmex10.afm
p1378
aV/Applications/vapor.app/Contents/lib/python2.7/site-packages/matplotlib/mpl-data/fonts/afm/pagk8a.afm
p1379
aV/Applications/vapor.app/Contents/lib/python2.7/site-packages/matplotlib/mpl-data/fonts/pdfcorefonts/Helvetica-Oblique.afm
p1380
aV/Applications/vapor.app/Contents/lib/python2.7/site-packages/matplotlib/mpl-data/fonts/afm/pbkli8a.afm
p1381
aV/Applications/vapor.app/Contents/lib/python2.7/site-packages/matplotlib/mpl-data/fonts/afm/pncr8a.afm
p1382
aV/Applications/vapor.app/Contents/lib/python2.7/site-packages/matplotlib/mpl-data/fonts/afm/pcrb8a.afm
p1383
aV/Applications/vapor.app/Contents/lib/python2.7/site-packages/matplotlib/mpl-data/fonts/afm/cmtt10.afm
p1384
aV/Applications/vapor.app/Contents/lib/python2.7/site-packages/matplotlib/mpl-data/fonts/pdfcorefonts/Helvetica.afm
p1385
aV/Applications/vapor.app/Contents/lib/python2.7/site-packages/matplotlib/mpl-data/fonts/afm/phvl8a.afm
p1386
aV/Applications/vapor.app/Contents/lib/python2.7/site-packages/matplotlib/mpl-data/fonts/afm/cmr10.afm
p1387
aV/Applications/vapor.app/Contents/lib/python2.7/site-packages/matplotlib/mpl-data/fonts/afm/pagd8a.afm
p1388
aV/Applications/vapor.app/Contents/lib/python2.7/site-packages/matplotlib/mpl-data/fonts/afm/pbkdi8a.afm
p1389
aV/Applications/vapor.app/Contents/lib/python2.7/site-packages/matplotlib/mpl-data/fonts/afm/ptmb8a.afm
p1390
aV/Applications/vapor.app/Contents/lib/python2.7/site-packages/matplotlib/mpl-data/fonts/afm/pplb8a.afm
p1391
aV/Applications/vapor.app/Contents/lib/python2.7/site-packages/matplotlib/mpl-data/fonts/afm/phvr8an.afm
p1392
aV/Applications/vapor.app/Contents/lib/python2.7/site-packages/matplotlib/mpl-data/fonts/afm/putr8a.afm
p1393
aV/Applications/vapor.app/Contents/lib/python2.7/site-packages/matplotlib/mpl-data/fonts/afm/putb8a.afm
p1394
aV/Applications/vapor.app/Contents/lib/python2.7/site-packages/matplotlib/mpl-data/fonts/afm/pbkd8a.afm
p1395
aV/Applications/vapor.app/Contents/lib/python2.7/site-packages/matplotlib/mpl-data/fonts/afm/pplbi8a.afm
p1396
aV/Applications/vapor.app/Contents/lib/python2.7/site-packages/matplotlib/mpl-data/fonts/afm/pncri8a.afm
p1397
aV/Applications/vapor.app/Contents/lib/python2.7/site-packages/matplotlib/mpl-data/fonts/afm/phvr8a.afm
p1398
aV/Applications/vapor.app/Contents/lib/python2.7/site-packages/matplotlib/mpl-data/fonts/afm/pagko8a.afm
p1399
aV/Applications/vapor.app/Contents/lib/python2.7/site-packages/matplotlib/mpl-data/fonts/afm/pzdr.afm
p1400
aV/Applications/vapor.app/Contents/lib/python2.7/site-packages/matplotlib/mpl-data/fonts/pdfcorefonts/Courier-Bold.afm
p1401
aV/Applications/vapor.app/Contents/lib/python2.7/site-packages/matplotlib/mpl-data/fonts/pdfcorefonts/ZapfDingbats.afm
p1402
aV/Applications/vapor.app/Contents/lib/python2.7/site-packages/matplotlib/mpl-data/fonts/pdfcorefonts/Times-Bold.afm
p1403
aV/Applications/vapor.app/Contents/lib/python2.7/site-packages/matplotlib/mpl-data/fonts/afm/putbi8a.afm
p1404
aV/Applications/vapor.app/Contents/lib/python2.7/site-packages/matplotlib/mpl-data/fonts/afm/pcrr8a.afm
p1405
aV/Applications/vapor.app/Contents/lib/python2.7/site-packages/matplotlib/mpl-data/fonts/afm/putri8a.afm
p1406
aV/Applications/vapor.app/Contents/lib/python2.7/site-packages/matplotlib/mpl-data/fonts/pdfcorefonts/Helvetica-Bold.afm
p1407
aV/Applications/vapor.app/Contents/lib/python2.7/site-packages/matplotlib/mpl-data/fonts/afm/cmsy10.afm
p1408
aV/Applications/vapor.app/Contents/lib/python2.7/site-packages/matplotlib/mpl-data/fonts/pdfcorefonts/Times-BoldItalic.afm
p1409
aV/Applications/vapor.app/Contents/lib/python2.7/site-packages/matplotlib/mpl-data/fonts/afm/phvro8a.afm
p1410
aV/Applications/vapor.app/Contents/lib/python2.7/site-packages/matplotlib/mpl-data/fonts/afm/psyr.afm
p1411
aV/Applications/vapor.app/Contents/lib/python2.7/site-packages/matplotlib/mpl-data/fonts/afm/pzcmi8a.afm
p1412
aV/Applications/vapor.app/Contents/lib/python2.7/site-packages/matplotlib/mpl-data/fonts/afm/pcrro8a.afm
p1413
aV/Applications/vapor.app/Contents/lib/python2.7/site-packages/matplotlib/mpl-data/fonts/afm/phvlo8a.afm
p1414
aV/Applications/vapor.app/Contents/lib/python2.7/site-packages/matplotlib/mpl-data/fonts/afm/phvro8an.afm
p1415
aV/Applications/vapor.app/Contents/lib/python2.7/site-packages/matplotlib/mpl-data/fonts/afm/phvb8an.afm
p1416
aV/Applications/vapor.app/Contents/lib/python2.7/site-packages/matplotlib/mpl-data/fonts/afm/pncbi8a.afm
p1417
aV/Applications/vapor.app/Contents/lib/python2.7/site-packages/matplotlib/mpl-data/fonts/afm/pplri8a.afm
p1418
aV/Applications/vapor.app/Contents/lib/python2.7/site-packages/matplotlib/mpl-data/fonts/afm/pncb8a.afm
p1419
aV/usr/X11/lib/X11/fonts/Type1/UTB_____.afm
p1420
aV/usr/X11/lib/X11/fonts/Type1/c0583bt_.afm
p1421
aV/usr/X11/lib/X11/fonts/Type1/l049036t.afm
p1422
aV/usr/X11/lib/X11/fonts/Type1/c0649bt_.afm
p1423
aV/usr/X11/lib/X11/fonts/Type1/UTRG____.afm
p1424
aV/usr/X11/lib/X11/fonts/Type1/c0582bt_.afm
p1425
aV/usr/X11/lib/X11/fonts/Type1/c0648bt_.afm
p1426
aV/usr/X11/lib/X11/fonts/Type1/c0633bt_.afm
p1427
aV/usr/X11/lib/X11/fonts/Type1/l048013t.afm
p1428
aV/usr/X11/lib/X11/fonts/Type1/courb.afm
p1429
aV/usr/X11/lib/X11/fonts/Type1/c0419bt_.afm
p1430
aV/usr/X11/lib/X11/fonts/Type1/UTI_____.afm
p1431
aV/usr/X11/lib/X11/fonts/Type1/l049016t.afm
p1432
aV/usr/X11/lib/X11/fonts/Type1/l048033t.afm
p1433
aV/usr/X11/lib/X11/fonts/Type1/l048016t.afm
p1434
aV/usr/X11/lib/X11/fonts/Type1/l048036t.afm
p1435
aV/usr/X11/lib/X11/fonts/Type1/courbi.afm
p1436
aV/usr/X11/lib/X11/fonts/Type1/c0632bt_.afm
p1437
aV/usr/X11/lib/X11/fonts/Type1/l049013t.afm
p1438
aV/usr/X11/lib/X11/fonts/Type1/c0611bt_.afm
p1439
aV/usr/X11/lib/X11/fonts/Type1/l047036t.afm
p1440
aV/usr/X11/lib/X11/fonts/Type1/l047016t.afm
p1441
aV/usr/X11/lib/X11/fonts/Type1/l047033t.afm
p1442
aV/usr/X11/lib/X11/fonts/Type1/l047013t.afm
p1443
aV/usr/X11/lib/X11/fonts/Type1/l049033t.afm
p1444
aV/usr/X11/lib/X11/fonts/Type1/UTBI____.afm
p1445
aV/usr/X11/lib/X11/fonts/Type1/cour.afm
p1446
aV/usr/X11/lib/X11/fonts/Type1/couri.afm
p1447
asS'afmlist'
p1448
(lp1449
g1
(g8
g3
NtRp1450
(dp1451
g11
Vnormal
p1452
sg13
S'Symbol'
p1453
sg15
I500
sg16
g1452
sg18
g1452
sg19
g1358
sg21
Vscalable
p1454
sbag1
(g8
g3
NtRp1455
(dp1456
g11
Vitalic
p1457
sg13
S'Computer Modern'
p1458
sg15
I500
sg16
g1452
sg18
g1452
sg19
g1361
sg21
g1454
sbag1
(g8
g3
NtRp1459
(dp1460
g11
g1457
sg13
S'Helvetica'
p1461
sg15
I700
sg16
g1452
sg18
g1452
sg19
g1362
sg21
g1454
sbag1
(g8
g3
NtRp1462
(dp1463
g11
g1452
sg13
S'ITC Bookman'
p1464
sg15
I200
sg16
g1452
sg18
g1452
sg19
g1363
sg21
g1454
sbag1
(g8
g3
NtRp1465
(dp1466
g11
g1457
sg13
S'ITC Avant Garde Gothic'
p1467
sg15
I600
sg16
g1452
sg18
g1452
sg19
g1364
sg21
g1454
sbag1
(g8
g3
NtRp1468
(dp1469
g11
g1457
sg13
S'Courier'
p1470
sg15
I500
sg16
g1452
sg18
g1452
sg19
g1365
sg21
g1454
sbag1
(g8
g3
NtRp1471
(dp1472
g11
g1457
sg13
S'Times'
p1473
sg15
I700
sg16
g1452
sg18
g1452
sg19
g1366
sg21
g1454
sbag1
(g8
g3
NtRp1474
(dp1475
g11
g1457
sg13
S'Times'
p1476
sg15
I500
sg16
g1452
sg18
g1452
sg19
g1367
sg21
g1454
sbag1
(g8
g3
NtRp1477
(dp1478
g11
g1452
sg13
S'Palatino'
p1479
sg15
I500
sg16
g1452
sg18
g1452
sg19
g1368
sg21
g1454
sbag1
(g8
g3
NtRp1480
(dp1481
g11
g1457
sg13
S'Helvetica'
p1482
sg15
I700
sg16
Vcondensed
p1483
sg18
g1452
sg19
g1369
sg21
g1454
sbag1
(g8
g3
NtRp1484
(dp1485
g11
g1457
sg13
S'Times'
p1486
sg15
I500
sg16
g1452
sg18
g1452
sg19
g1370
sg21
g1454
sbag1
(g8
g3
NtRp1487
(dp1488
g11
g1457
sg13
S'Helvetica'
p1489
sg15
I700
sg16
g1452
sg18
g1452
sg19
g1371
sg21
g1454
sbag1
(g8
g3
NtRp1490
(dp1491
g11
g1452
sg13
S'Times'
p1492
sg15
I500
sg16
g1452
sg18
g1452
sg19
g1372
sg21
g1454
sbag1
(g8
g3
NtRp1493
(dp1494
g11
g1457
sg13
S'Courier'
p1495
sg15
I700
sg16
g1452
sg18
g1452
sg19
g1373
sg21
g1454
sbag1
(g8
g3
NtRp1496
(dp1497
g11
g1452
sg13
S'Times'
p1498
sg15
I500
sg16
g1452
sg18
g1452
sg19
g1374
sg21
g1454
sbag1
(g8
g3
NtRp1499
(dp1500
g11
g1452
sg13
S'Helvetica'
p1501
sg15
I700
sg16
g1452
sg18
g1452
sg19
g1375
sg21
g1454
sbag1
(g8
g3
NtRp1502
(dp1503
g11
g1457
sg13
S'Courier'
p1504
sg15
I700
sg16
g1452
sg18
g1452
sg19
g1376
sg21
g1454
sbag1
(g8
g3
NtRp1505
(dp1506
g11
g1452
sg13
S'Courier'
p1507
sg15
I500
sg16
g1452
sg18
g1452
sg19
g1377
sg21
g1454
sbag1
(g8
g3
NtRp1508
(dp1509
g11
g1452
sg13
S'Computer Modern'
p1510
sg15
I500
sg16
g1452
sg18
g1452
sg19
g1378
sg21
g1454
sbag1
(g8
g3
NtRp1511
(dp1512
g11
g1452
sg13
S'ITC Avant Garde Gothic'
p1513
sg15
I400
sg16
g1452
sg18
g1452
sg19
g1379
sg21
g1454
sbag1
(g8
g3
NtRp1514
(dp1515
g11
g1457
sg13
S'Helvetica'
p1516
sg15
I500
sg16
g1452
sg18
g1452
sg19
g1380
sg21
g1454
sbag1
(g8
g3
NtRp1517
(dp1518
g11
g1457
sg13
S'ITC Bookman'
p1519
sg15
I200
sg16
g1452
sg18
g1452
sg19
g1381
sg21
g1454
sbag1
(g8
g3
NtRp1520
(dp1521
g11
g1452
sg13
S'New Century Schoolbook'
p1522
sg15
I500
sg16
g1452
sg18
g1452
sg19
g1382
sg21
g1454
sbag1
(g8
g3
NtRp1523
(dp1524
g11
g1452
sg13
S'Courier'
p1525
sg15
I700
sg16
g1452
sg18
g1452
sg19
g1383
sg21
g1454
sbag1
(g8
g3
NtRp1526
(dp1527
g11
g1452
sg13
S'Computer Modern'
p1528
sg15
I500
sg16
g1452
sg18
g1452
sg19
g1384
sg21
g1454
sbag1
(g8
g3
NtRp1529
(dp1530
g11
g1452
sg13
S'Helvetica'
p1531
sg15
I500
sg16
g1452
sg18
g1452
sg19
g1385
sg21
g1454
sbag1
(g8
g3
NtRp1532
(dp1533
g11
g1452
sg13
S'Helvetica'
p1534
sg15
I200
sg16
g1452
sg18
g1452
sg19
g1386
sg21
g1454
sbag1
(g8
g3
NtRp1535
(dp1536
g11
g1452
sg13
S'Computer Modern'
p1537
sg15
I500
sg16
g1452
sg18
g1452
sg19
g1387
sg21
g1454
sbag1
(g8
g3
NtRp1538
(dp1539
g11
g1452
sg13
S'ITC Avant Garde Gothic'
p1540
sg15
I600
sg16
g1452
sg18
g1452
sg19
g1388
sg21
g1454
sbag1
(g8
g3
NtRp1541
(dp1542
g11
g1457
sg13
S'ITC Bookman'
p1543
sg15
I600
sg16
g1452
sg18
g1452
sg19
g1389
sg21
g1454
sbag1
(g8
g3
NtRp1544
(dp1545
g11
g1452
sg13
S'Times'
p1546
sg15
I700
sg16
g1452
sg18
g1452
sg19
g1390
sg21
g1454
sbag1
(g8
g3
NtRp1547
(dp1548
g11
g1452
sg13
S'Palatino'
p1549
sg15
I700
sg16
g1452
sg18
g1452
sg19
g1391
sg21
g1454
sbag1
(g8
g3
NtRp1550
(dp1551
g11
g1452
sg13
S'Helvetica'
p1552
sg15
I500
sg16
g1483
sg18
g1452
sg19
g1392
sg21
g1454
sbag1
(g8
g3
NtRp1553
(dp1554
g11
g1452
sg13
S'Utopia'
p1555
sg15
I400
sg16
g1452
sg18
g1452
sg19
g1393
sg21
g1454
sbag1
(g8
g3
NtRp1556
(dp1557
g11
g1452
sg13
S'Utopia'
p1558
sg15
I700
sg16
g1452
sg18
g1452
sg19
g1394
sg21
g1454
sbag1
(g8
g3
NtRp1559
(dp1560
g11
g1452
sg13
S'ITC Bookman'
p1561
sg15
I600
sg16
g1452
sg18
g1452
sg19
g1395
sg21
g1454
sbag1
(g8
g3
NtRp1562
(dp1563
g11
g1457
sg13
S'Palatino'
p1564
sg15
I700
sg16
g1452
sg18
g1452
sg19
g1396
sg21
g1454
sbag1
(g8
g3
NtRp1565
(dp1566
g11
g1457
sg13
S'New Century Schoolbook'
p1567
sg15
I500
sg16
g1452
sg18
g1452
sg19
g1397
sg21
g1454
sbag1
(g8
g3
NtRp1568
(dp1569
g11
g1452
sg13
S'Helvetica'
p1570
sg15
I500
sg16
g1452
sg18
g1452
sg19
g1398
sg21
g1454
sbag1
(g8
g3
NtRp1571
(dp1572
g11
g1457
sg13
S'ITC Avant Garde Gothic'
p1573
sg15
I400
sg16
g1452
sg18
g1452
sg19
g1399
sg21
g1454
sbag1
(g8
g3
NtRp1574
(dp1575
g11
g1452
sg13
S'ITC Zapf Dingbats'
p1576
sg15
I500
sg16
g1452
sg18
g1452
sg19
g1400
sg21
g1454
sbag1
(g8
g3
NtRp1577
(dp1578
g11
g1452
sg13
S'Courier'
p1579
sg15
I700
sg16
g1452
sg18
g1452
sg19
g1401
sg21
g1454
sbag1
(g8
g3
NtRp1580
(dp1581
g11
g1452
sg13
S'ZapfDingbats'
p1582
sg15
I500
sg16
g1452
sg18
g1452
sg19
g1402
sg21
g1454
sbag1
(g8
g3
NtRp1583
(dp1584
g11
g1452
sg13
S'Times'
p1585
sg15
I700
sg16
g1452
sg18
g1452
sg19
g1403
sg21
g1454
sbag1
(g8
g3
NtRp1586
(dp1587
g11
g1457
sg13
S'Utopia'
p1588
sg15
I700
sg16
g1452
sg18
g1452
sg19
g1404
sg21
g1454
sbag1
(g8
g3
NtRp1589
(dp1590
g11
g1452
sg13
S'Courier'
p1591
sg15
I500
sg16
g1452
sg18
g1452
sg19
g1405
sg21
g1454
sbag1
(g8
g3
NtRp1592
(dp1593
g11
g1457
sg13
S'Utopia'
p1594
sg15
I400
sg16
g1452
sg18
g1452
sg19
g1406
sg21
g1454
sbag1
(g8
g3
NtRp1595
(dp1596
g11
g1452
sg13
S'Helvetica'
p1597
sg15
I700
sg16
g1452
sg18
g1452
sg19
g1407
sg21
g1454
sbag1
(g8
g3
NtRp1598
(dp1599
g11
g1457
sg13
S'Computer Modern'
p1600
sg15
I500
sg16
g1452
sg18
g1452
sg19
g1408
sg21
g1454
sbag1
(g8
g3
NtRp1601
(dp1602
g11
g1457
sg13
S'Times'
p1603
sg15
I700
sg16
g1452
sg18
g1452
sg19
g1409
sg21
g1454
sbag1
(g8
g3
NtRp1604
(dp1605
g11
g1457
sg13
S'Helvetica'
p1606
sg15
I500
sg16
g1452
sg18
g1452
sg19
g1410
sg21
g1454
sbag1
(g8
g3
NtRp1607
(dp1608
g11
g1452
sg13
S'Symbol'
p1609
sg15
I500
sg16
g1452
sg18
g1452
sg19
g1411
sg21
g1454
sbag1
(g8
g3
NtRp1610
(dp1611
g11
g1457
sg13
S'ITC Zapf Chancery'
p1612
sg15
I500
sg16
g1452
sg18
g1452
sg19
g1412
sg21
g1454
sbag1
(g8
g3
NtRp1613
(dp1614
g11
g1457
sg13
S'Courier'
p1615
sg15
I500
sg16
g1452
sg18
g1452
sg19
g1413
sg21
g1454
sbag1
(g8
g3
NtRp1616
(dp1617
g11
g1457
sg13
S'Helvetica'
p1618
sg15
I200
sg16
g1452
sg18
g1452
sg19
g1414
sg21
g1454
sbag1
(g8
g3
NtRp1619
(dp1620
g11
g1457
sg13
S'Helvetica'
p1621
sg15
I500
sg16
g1483
sg18
g1452
sg19
g1415
sg21
g1454
sbag1
(g8
g3
NtRp1622
(dp1623
g11
g1452
sg13
S'Helvetica'
p1624
sg15
I700
sg16
g1483
sg18
g1452
sg19
g1416
sg21
g1454
sbag1
(g8
g3
NtRp1625
(dp1626
g11
g1457
sg13
S'New Century Schoolbook'
p1627
sg15
I700
sg16
g1452
sg18
g1452
sg19
g1417
sg21
g1454
sbag1
(g8
g3
NtRp1628
(dp1629
g11
g1457
sg13
S'Palatino'
p1630
sg15
I500
sg16
g1452
sg18
g1452
sg19
g1418
sg21
g1454
sbag1
(g8
g3
NtRp1631
(dp1632
g11
g1452
sg13
S'New Century Schoolbook'
p1633
sg15
I700
sg16
g1452
sg18
g1452
sg19
g1419
sg21
g1454
sbag1
(g8
g3
NtRp1634
(dp1635
g11
g1452
sg13
S'Utopia'
p1636
sg15
I700
sg16
g1452
sg18
g1452
sg19
g1420
sg21
g1454
sbag1
(g8
g3
NtRp1637
(dp1638
g11
g1452
sg13
S'Courier 10 Pitch'
p1639
sg15
I700
sg16
g1452
sg18
g1452
sg19
g1421
sg21
g1454
sbag1
(g8
g3
NtRp1640
(dp1641
g11
g1457
sg13
S'Luxi Serif'
p1642
sg15
I700
sg16
g1452
sg18
g1452
sg19
g1422
sg21
g1454
sbag1
(g8
g3
NtRp1643
(dp1644
g11
g1457
sg13
S'Bitstream Charter'
p1645
sg15
I400
sg16
g1452
sg18
g1452
sg19
g1423
sg21
g1454
sbag1
(g8
g3
NtRp1646
(dp1647
g11
g1452
sg13
S'Utopia'
p1648
sg15
I400
sg16
g1452
sg18
g1452
sg19
g1424
sg21
g1454
sbag1
(g8
g3
NtRp1649
(dp1650
g11
g1457
sg13
S'Courier 10 Pitch'
p1651
sg15
I400
sg16
g1452
sg18
g1452
sg19
g1425
sg21
g1454
sbag1
(g8
g3
NtRp1652
(dp1653
g11
g1452
sg13
S'Bitstream Charter'
p1654
sg15
I400
sg16
g1452
sg18
g1452
sg19
g1426
sg21
g1454
sbag1
(g8
g3
NtRp1655
(dp1656
g11
g1457
sg13
S'Bitstream Charter'
p1657
sg15
I700
sg16
g1452
sg18
g1452
sg19
g1427
sg21
g1454
sbag1
(g8
g3
NtRp1658
(dp1659
g11
g1452
sg13
S'Luxi Sans'
p1660
sg15
I400
sg16
g1452
sg18
g1452
sg19
g1428
sg21
g1454
sbag1
(g8
g3
NtRp1661
(dp1662
g11
g1452
sg13
S'Courier'
p1663
sg15
I700
sg16
g1452
sg18
g1452
sg19
g1429
sg21
g1454
sbag1
(g8
g3
NtRp1664
(dp1665
g11
g1452
sg13
S'Courier 10 Pitch'
p1666
sg15
I400
sg16
g1452
sg18
g1452
sg19
g1430
sg21
g1454
sbag1
(g8
g3
NtRp1667
(dp1668
g11
g1457
sg13
S'Utopia'
p1669
sg15
I400
sg16
g1452
sg18
g1452
sg19
g1431
sg21
g1454
sbag1
(g8
g3
NtRp1670
(dp1671
g11
g1452
sg13
S'Luxi Serif'
p1672
sg15
I700
sg16
g1452
sg18
g1452
sg19
g1432
sg21
g1454
sbag1
(g8
g3
NtRp1673
(dp1674
g11
g1457
sg13
S'Luxi Sans'
p1675
sg15
I400
sg16
g1452
sg18
g1452
sg19
g1433
sg21
g1454
sbag1
(g8
g3
NtRp1676
(dp1677
g11
g1452
sg13
S'Luxi Sans'
p1678
sg15
I700
sg16
g1452
sg18
g1452
sg19
g1434
sg21
g1454
sbag1
(g8
g3
NtRp1679
(dp1680
g11
g1457
sg13
S'Luxi Sans'
p1681
sg15
I700
sg16
g1452
sg18
g1452
sg19
g1435
sg21
g1454
sbag1
(g8
g3
NtRp1682
(dp1683
g11
g1457
sg13
S'Courier'
p1684
sg15
I700
sg16
g1452
sg18
g1452
sg19
g1436
sg21
g1454
sbag1
(g8
g3
NtRp1685
(dp1686
g11
g1452
sg13
S'Bitstream Charter'
p1687
sg15
I700
sg16
g1452
sg18
g1452
sg19
g1437
sg21
g1454
sbag1
(g8
g3
NtRp1688
(dp1689
g11
g1452
sg13
S'Luxi Serif'
p1690
sg15
I400
sg16
g1452
sg18
g1452
sg19
g1438
sg21
g1454
sbag1
(g8
g3
NtRp1691
(dp1692
g11
g1457
sg13
S'Courier 10 Pitch'
p1693
sg15
I700
sg16
g1452
sg18
g1452
sg19
g1439
sg21
g1454
sbag1
(g8
g3
NtRp1694
(dp1695
g11
g1457
sg13
S'Luxi Mono'
p1696
sg15
I700
sg16
g1452
sg18
g1452
sg19
g1440
sg21
g1454
sbag1
(g8
g3
NtRp1697
(dp1698
g11
g1452
sg13
S'Luxi Mono'
p1699
sg15
I700
sg16
g1452
sg18
g1452
sg19
g1441
sg21
g1454
sbag1
(g8
g3
NtRp1700
(dp1701
g11
g1457
sg13
S'Luxi Mono'
p1702
sg15
I400
sg16
g1452
sg18
g1452
sg19
g1442
sg21
g1454
sbag1
(g8
g3
NtRp1703
(dp1704
g11
g1452
sg13
S'Luxi Mono'
p1705
sg15
I400
sg16
g1452
sg18
g1452
sg19
g1443
sg21
g1454
sbag1
(g8
g3
NtRp1706
(dp1707
g11
g1457
sg13
S'Luxi Serif'
p1708
sg15
I400
sg16
g1452
sg18
g1452
sg19
g1444
sg21
g1454
sbag1
(g8
g3
NtRp1709
(dp1710
g11
g1457
sg13
S'Utopia'
p1711
sg15
I700
sg16
g1452
sg18
g1452
sg19
g1445
sg21
g1454
sbag1
(g8
g3
NtRp1712
(dp1713
g11
g1452
sg13
S'Courier'
p1714
sg15
I400
sg16
g1452
sg18
g1452
sg19
g1446
sg21
g1454
sbag1
(g8
g3
NtRp1715
(dp1716
g11
g1457
sg13
S'Courier'
p1717
sg15
I400
sg16
g1452
sg18
g1452
sg19
g1447
sg21
g1454
sbasb.